Component: ARM Compiler 5.06 update 1 (build 61) Tool: armlink [4d35a8]

==============================================================================

Section Cross References

    startup_lpc17xx.o(STACK) refers (Special) to heapauxi.o(.text) for __use_two_region_memory
    startup_lpc17xx.o(HEAP) refers (Special) to heapauxi.o(.text) for __use_two_region_memory
    startup_lpc17xx.o(RESET) refers (Special) to heapauxi.o(.text) for __use_two_region_memory
    startup_lpc17xx.o(RESET) refers to startup_lpc17xx.o(STACK) for __initial_sp
    startup_lpc17xx.o(RESET) refers to startup_lpc17xx.o(.text) for Reset_Handler
    startup_lpc17xx.o(RESET) refers to main.o(.text) for NMI_Handler
    startup_lpc17xx.o(RESET) refers to timers.o(.text) for TIMER0_IRQHandler
    startup_lpc17xx.o(RESET) refers to uart.o(.text) for UART0_IRQHandler
    startup_lpc17xx.o(.ARM.__at_0x02FC) refers (Special) to heapauxi.o(.text) for __use_two_region_memory
    startup_lpc17xx.o(.text) refers (Special) to heapauxi.o(.text) for __use_two_region_memory
    startup_lpc17xx.o(.text) refers to system_lpc17xx.o(.text) for SystemInit
    startup_lpc17xx.o(.text) refers to __main.o(!!!main) for __main
    startup_lpc17xx.o(.text) refers to startup_lpc17xx.o(HEAP) for Heap_Mem
    startup_lpc17xx.o(.text) refers to startup_lpc17xx.o(STACK) for Stack_Mem
    system_lpc17xx.o(.text) refers to system_lpc17xx.o(.data) for .data
    lpc17xx_clkpwr.o(.text) refers to system_lpc17xx.o(.data) for SystemCoreClock
    lpc17xx_uart.o(.text) refers to lpc17xx_clkpwr.o(.text) for CLKPWR_GetPCLK
    lpc17xx_uart.o(.text) refers to lludivv7m.o(.text) for __aeabi_uldivmod
    lpc17xx_timer.o(.text) refers to lpc17xx_clkpwr.o(.text) for CLKPWR_ConfigPPWR
    lpc17xx_timer.o(.text) refers to lludivv7m.o(.text) for __aeabi_uldivmod
    sbl_iap.o(.text) refers to sbl_iap.o(.emb_text) for boot_jump
    sbl_iap.o(.text) refers to sbl_iap.o(.bss) for .bss
    sbl_iap.o(.text) refers to system_lpc17xx.o(.data) for SystemCoreClock
    sbl_iap.o(.text) refers to sbl_iap.o(.constdata) for .constdata
    sbl_iap.o(.text) refers to sbl_iap.o(.data) for .data
    modbus.o(.text) refers to dflt_clz.o(x$fpl$dfltu) for __aeabi_ui2d
    modbus.o(.text) refers to ddiv.o(x$fpl$ddiv) for __aeabi_ddiv
    modbus.o(.text) refers to dfixu.o(x$fpl$dfixu) for __aeabi_d2uiz
    modbus.o(.text) refers to rt_memcpy_v6.o(.text) for __aeabi_memcpy
    modbus.o(.text) refers to rt_memclr.o(.text) for __aeabi_memclr
    modbus.o(.text) refers to msg.o(.text) for Msg
    modbus.o(.text) refers to queue.o(.text) for quAddPack
    modbus.o(.text) refers to uart.o(.text) for UART1_SendBuffer
    modbus.o(.text) refers to modbus.o(.data) for .data
    modbus.o(.text) refers to modbus.o(.constdata) for .constdata
    modbus.o(.text) refers to ti.o(.bss) for time
    modbus.o(.text) refers to modbus.o(.bss) for .bss
    modbus.o(.text) refers to regs.o(.data) for pErrCSU1
    fs.o(.text) refers to flash.o(.text) for FLASH_GetBankID
    fs.o(.text) refers to strlen.o(.text) for strlen
    fs.o(.text) refers to tools.o(.text) for CRC8
    fs.o(.text) refers to strcmpv7m.o(.text) for strcmp
    fs.o(.text) refers to fs.o(.data) for .data
    fs.o(.text) refers to fs.o(.bss) for .bss
    fs.o(.text) refers to strcpy.o(.text) for strcpy
    fs.o(.text) refers to rt_memcpy_v6.o(.text) for __aeabi_memcpy
    fs.o(.text) refers to msg.o(.text) for Msg
    msg.o(.text) refers to _printf_pad.o(.text) for _printf_pre_padding
    msg.o(.text) refers to _printf_percent.o(.ARM.Collect$$_printf_percent$$00000000) for _printf_percent
    msg.o(.text) refers to _printf_x.o(.ARM.Collect$$_printf_percent$$0000000C) for _printf_x
    msg.o(.text) refers to _printf_hex_int_ll_ptr.o(.text) for _printf_longlong_hex
    msg.o(.text) refers to rt_memclr.o(.text) for __aeabi_memclr
    msg.o(.text) refers to c89vsprintf.o(.text) for __c89vsprintf
    msg.o(.text) refers to strlen.o(.text) for strlen
    msg.o(.text) refers to rt_memcpy_v6.o(.text) for __aeabi_memcpy
    msg.o(.text) refers to __2sprintf.o(.text) for __2sprintf
    msg.o(.text) refers to modbus.o(.text) for mbByteToPack
    msg.o(.text) refers to msg.o(.bss) for .bss
    msg.o(.text) refers to msg.o(.data) for .data
    bfs.o(.text) refers to fs.o(.text) for FS_ReadByte
    ti.o(.text) refers to ti.o(.bss) for .bss
    timers.o(.text) refers to lpc17xx_timer.o(.text) for TIM_Init
    timers.o(.text) refers to ti.o(.text) for TI_Handler
    timers.o(.text) refers to timers.o(.data) for .data
    uart.o(.text) refers to lpc17xx_uart.o(.text) for UART0_Send
    uart.o(.text) refers to lpc17xx_pinsel.o(.text) for PINSEL_ConfigPin
    uart.o(.text) refers to uart.o(.bss) for .bss
    uart.o(.text) refers to uart.o(.data) for .data
    uart.o(.text) refers to ti.o(.bss) for ti
    tools.o(.text) refers to fmul.o(x$fpl$fmul) for __aeabi_fmul
    tools.o(.text) refers to ffix.o(x$fpl$ffix) for __aeabi_f2iz
    tools.o(.text) refers to fflt_clz.o(x$fpl$fflt) for __aeabi_i2f
    tools.o(.text) refers to faddsub_clz.o(x$fpl$frsb) for __aeabi_frsub
    tools.o(.text) refers to tools.o(.data) for .data
    flash.o(.text) refers to msg.o(.text) for Msg
    flash.o(.text) refers to flash.o(.bss) for .bss
    flash.o(.text) refers to flash.o(.data) for .data
    flash.o(.text) refers to flash.o(.constdata) for .constdata
    virtualpins.o(.text) refers to virtualpins.o(.data) for .data
    virtualpins.o(.text) refers to virtualpins.o(.bss) for .bss
    virtualpins.o(.text) refers to staticpins.o(.data) for aPin
    virtualpins.o(.text) refers to ti.o(.bss) for time
    virtualpins.o(.text) refers to keypad.o(.data) for pDrDelay
    queue.o(.text) refers to rt_memclr.o(.text) for __aeabi_memclr
    queue.o(.text) refers to modbus.o(.text) for mbByteToPack
    queue.o(.text) refers to msg.o(.text) for Msg
    queue.o(.text) refers to keypad.o(.text) for KPAnswer
    queue.o(.text) refers to rt_memcpy_v6.o(.text) for __aeabi_memcpy
    queue.o(.text) refers to queue.o(.bss) for .bss
    queue.o(.text) refers to regs.o(.data) for KP_NA_Count
    queue.o(.text) refers to keypad.o(.data) for pAddrKPCtrl
    queue.o(.text) refers to queue.o(.data) for .data
    queue.o(.text) refers to keypad.o(.data) for pYmove
    queue.o(.text) refers to ti.o(.bss) for ti
    queue.o(.text) refers to modbus.o(.data) for WaitFlag
    u0packets.o(.text) refers to modbus.o(.text) for mbBufferToPack
    u0packets.o(.text) refers to sbl_iap.o(.emb_text) for boot_jump
    u0packets.o(.text) refers to regs.o(.text) for Cross
    u0packets.o(.text) refers to rt_memcpy_v6.o(.text) for __aeabi_memcpy
    u0packets.o(.text) refers to ffix.o(x$fpl$ffix) for __aeabi_f2iz
    u0packets.o(.text) refers to msg.o(.text) for Msg
    u0packets.o(.text) refers to virtualpins.o(.text) for QSetPin
    u0packets.o(.text) refers to freqinvr.o(.text) for FIUnlock
    u0packets.o(.text) refers to rt_memclr_w.o(.text) for __aeabi_memclr4
    u0packets.o(.text) refers to fs.o(.text) for FS_GetFileInfo
    u0packets.o(.text) refers to rt_memcpy_w.o(.text) for __aeabi_memcpy4
    u0packets.o(.text) refers to regs.o(.bss) for regs
    u0packets.o(.text) refers to regs.o(.data) for iva
    u0packets.o(.text) refers to regs.o(.data) for OutAllocTable
    u0packets.o(.text) refers to regs.o(.data) for CurVarIndex
    u0packets.o(.text) refers to ti.o(.bss) for ti
    u0packets.o(.text) refers to bfs.o(.text) for bFS_Write
    u0packets.o(.text) refers to rt_memclr.o(.text) for __aeabi_memclr
    u0packets.o(.text) refers to strlen.o(.text) for strlen
    u0packets.o(.text) refers to u0packets.o(.bss) for .bss
    u0packets.o(.text) refers to flash.o(.text) for FLASH_BulkErase
    u0packets.o(.text) refers to motors.o(.text) for InitZComp
    u0packets.o(.text) refers to fs.o(.data) for FNTRecordsNumber
    u0packets.o(.text) refers to motors.o(.bss) for fmvc
    u0packets.o(.text) refers to handlers.o(.data) for Busy
    u0packets.o(.text) refers to uart.o(.text) for UARTx_ReadyRecvData
    u0packets.o(.text) refers to motors.o(.data) for pX3
    u1packets.o(.text) refers to queue.o(.text) for quFixAnswer
    u1packets.o(.text) refers to uart.o(.text) for UARTx_ReadyRecvData
    u1packets.o(.text) refers to modbus.o(.text) for mbRecvBuffer
    u1packets.o(.text) refers to modbus.o(.data) for WaitFlag
    u1packets.o(.text) refers to u1packets.o(.bss) for .bss
    main.o(.text) refers to strcpy.o(.text) for strcpy
    main.o(.text) refers to strlen.o(.text) for strlen
    main.o(.text) refers to msg.o(.text) for Msg
    main.o(.text) refers to system_lpc17xx.o(.text) for SystemInit
    main.o(.text) refers to uart.o(.text) for UARTx_Init
    main.o(.text) refers to timers.o(.text) for InitTimer
    main.o(.text) refers to flash.o(.text) for FLASH_Init
    main.o(.text) refers to regs.o(.text) for AllocFrzRegisters
    main.o(.text) refers to main.o(i.InitFrzTimers) for InitFrzTimers
    main.o(.text) refers to handlers.o(.text) for InitQExBlks
    main.o(.text) refers to modbus.o(.text) for mbSetHandler
    main.o(.text) refers to fs.o(.text) for FS_Init
    main.o(.text) refers to virtualpins.o(.text) for InitVirtualPins
    main.o(.text) refers to freqinvr.o(.text) for FIInit
    main.o(.text) refers to keypad.o(.text) for KPInit
    main.o(.text) refers to motors.o(.text) for InitZComp
    main.o(.text) refers to u0packets.o(.text) for UART0_Thread
    main.o(.text) refers to u1packets.o(.text) for UART1_Thread
    main.o(.text) refers to main.o(i.FormQueue) for FormQueue
    main.o(.text) refers to queue.o(.text) for QueueProcessing
    main.o(.text) refers to main.o(i.RunPrgFrz) for RunPrgFrz
    main.o(.text) refers to main.o(i.ButtonsToRegs) for ButtonsToRegs
    main.o(.text) refers to main.o(i.MoveByRegs) for MoveByRegs
    main.o(.text) refers to main.o(i.CheckPointFrz) for CheckPointFrz
    main.o(.text) refers to main.o(i.HTCheckPointFrz) for HTCheckPointFrz
    main.o(.text) refers to main.o(i.ZZCheckPointFrz) for ZZCheckPointFrz
    main.o(.text) refers to regs.o(.data) for CurVarIndex
    main.o(.text) refers to regs.o(.data) for iva
    main.o(.text) refers to regs.o(.data) for OutAllocTable
    main.o(.text) refers to regs.o(.bss) for regs
    main.o(.text) refers to ti.o(.bss) for ti
    main.o(.text) refers to handlers.o(.data) for pPrgRun
    main.o(.text) refers to main.o(.data__ZZ13CrushWaterFrzE1f) for CrushWaterFrz::f
    main.o(.text) refers to keypad.o(.data) for pBtn5
    main.o(.text) refers to motors.o(.bss) for fmvc
    main.o(.text) refers to main.o(.data__ZZ9ByPassFrzE2f1) for ByPassFrz::f1
    main.o(.text) refers to main.o(.data__ZZ9HTCorrFrzE2f2) for HTCorrFrz::f2
    main.o(.text) refers to main.o(.data__ZZ11ZZeroDatFrzE2f2) for ZZeroDatFrz::f2
    handlers.o(.text) refers to _printf_percent.o(.ARM.Collect$$_printf_percent$$00000000) for _printf_percent
    handlers.o(.text) refers to _printf_d.o(.ARM.Collect$$_printf_percent$$00000009) for _printf_d
    handlers.o(.text) refers to _printf_dec.o(.text) for _printf_int_dec
    handlers.o(.text) refers to fs.o(.text) for FS_Assign
    handlers.o(.text) refers to msg.o(.text) for Msg
    handlers.o(.text) refers to bfs.o(.text) for bFS_ReadLn
    handlers.o(.text) refers to fflt_clz.o(x$fpl$ffltu) for __aeabi_ui2f
    handlers.o(.text) refers to fmul.o(x$fpl$fmul) for __aeabi_fmul
    handlers.o(.text) refers to faddsub_clz.o(x$fpl$fadd) for __aeabi_fadd
    handlers.o(.text) refers to strlen.o(.text) for strlen
    handlers.o(.text) refers to fdiv.o(x$fpl$fdiv) for __aeabi_fdiv
    handlers.o(.text) refers to f2d.o(x$fpl$f2d) for __aeabi_f2d
    handlers.o(.text) refers to ceil.o(i.ceil) for ceil
    handlers.o(.text) refers to dfixu.o(x$fpl$dfixu) for __aeabi_d2uiz
    handlers.o(.text) refers to handlers.o(.data) for .data
    handlers.o(.text) refers to rt_memclr_w.o(.text) for __aeabi_memclr4
    handlers.o(.text) refers to motors.o(.text) for XYZImpToXYZ
    handlers.o(.text) refers to tools.o(.text) for abss32
    handlers.o(.text) refers to faddsub_clz.o(x$fpl$fsub) for __aeabi_fsub
    handlers.o(.text) refers to sqrt.o(i.sqrt) for sqrt
    handlers.o(.text) refers to d2f.o(x$fpl$d2f) for __aeabi_d2f
    handlers.o(.text) refers to fflt_clz.o(x$fpl$fflt) for __aeabi_i2f
    handlers.o(.text) refers to ffix.o(x$fpl$ffix) for __aeabi_f2iz
    handlers.o(.text) refers to motor_z.o(.bss) for ms_Z
    handlers.o(.text) refers to motor_y.o(.bss) for ms_Y
    handlers.o(.text) refers to motor_x.o(.bss) for ms_X
    handlers.o(.text) refers to regs.o(.data) for pZ_SPR
    handlers.o(.text) refers to faddsub_clz.o(x$fpl$frsb) for __aeabi_frsub
    handlers.o(.text) refers to frleqf.o(x$fpl$frleqf) for __aeabi_cfrcmple
    handlers.o(.text) refers to freqinvr.o(.text) for FIStop
    handlers.o(.text) refers to virtualpins.o(.text) for QClrPin
    handlers.o(.text) refers to motors.o(.bss) for fmvs
    handlers.o(.text) refers to ti.o(.bss) for ti
    handlers.o(.text) refers to strcpy.o(.text) for strcpy
    handlers.o(.text) refers to __2sprintf.o(.text) for __2sprintf
    handlers.o(.text) refers to rt_memcpy_v6.o(.text) for __aeabi_memcpy
    handlers.o(.text) refers to rt_memcpy_w.o(.text) for __aeabi_memcpy4
    handlers.o(.text) refers to handlers.o(.bss) for .bss
    handlers.o(.text) refers to acos.o(i.acos) for acos
    handlers.o(.text) refers to dmul.o(x$fpl$dmul) for __aeabi_dmul
    handlers.o(.text) refers to ddiv.o(x$fpl$ddiv) for __aeabi_ddiv
    handlers.o(.text) refers to fleqf.o(x$fpl$fleqf) for __aeabi_cfcmple
    handlers.o(.text) refers to daddsub_clz.o(x$fpl$dadd) for __aeabi_dadd
    motors.o(.text) refers to faddsub_clz.o(x$fpl$fadd) for __aeabi_fadd
    motors.o(.text) refers to fmul.o(x$fpl$fmul) for __aeabi_fmul
    motors.o(.text) refers to faddsub_clz.o(x$fpl$frsb) for __aeabi_frsub
    motors.o(.text) refers to faddsub_clz.o(x$fpl$fsub) for __aeabi_fsub
    motors.o(.text) refers to fdiv.o(x$fpl$fdiv) for __aeabi_fdiv
    motors.o(.text) refers to fflt_clz.o(x$fpl$ffltu) for __aeabi_ui2f
    motors.o(.text) refers to fflt_clz.o(x$fpl$fflt) for __aeabi_i2f
    motors.o(.text) refers to ffix.o(x$fpl$ffix) for __aeabi_f2iz
    motors.o(.text) refers to feqf.o(x$fpl$feqf) for __aeabi_cfcmpeq
    motors.o(.text) refers to msg.o(.text) for Msg
    motors.o(.text) refers to motors.o(.data) for .data
    motors.o(.text) refers to regs.o(.data) for pX_SPR
    motors.o(.text) refers to lludivv7m.o(.text) for __aeabi_uldivmod
    motors.o(.text) refers to motor_y.o(.bss) for ms_Y
    motors.o(.text) refers to motor_x.o(.bss) for ms_X
    motors.o(.text) refers to motors.o(.conststring) for .conststring
    motors.o(.text) refers to motor_z.o(.bss) for mc_Z
    motors.o(.text) refers to u0packets.o(.text) for SendAddPointPackFrz
    motors.o(.text) refers to ti.o(.bss) for ti
    motors.o(.text) refers to frleqf.o(x$fpl$frleqf) for __aeabi_cfrcmple
    motors.o(.text) refers to virtualpins.o(.text) for QSetPin
    motors.o(.text) refers to handlers.o(.text) for qbDelFirst
    motors.o(.text) refers to f2d.o(x$fpl$f2d) for __aeabi_f2d
    motors.o(.text) refers to dflt_clz.o(x$fpl$dfltu) for __aeabi_ui2d
    motors.o(.text) refers to ddiv.o(x$fpl$ddiv) for __aeabi_ddiv
    motors.o(.text) refers to dfix.o(x$fpl$dfix) for __aeabi_d2iz
    motors.o(.text) refers to freqinvr.o(.text) for FIStop
    motors.o(.text) refers to handlers.o(.data) for eb
    motors.o(.text) refers to motors.o(.bss) for .bss
    motors.o(.text) refers to fleqf.o(x$fpl$fleqf) for __aeabi_cfcmple
    motors.o(.text) refers to dmul.o(x$fpl$dmul) for __aeabi_dmul
    motors.o(.text) refers to d2f.o(x$fpl$d2f) for __aeabi_d2f
    freqinvr.o(.text) refers to virtualpins.o(.text) for QClrPin
    freqinvr.o(.text) refers to pwm.o(.text) for PWM_Init
    freqinvr.o(.text) refers to msg.o(.text) for Msg
    freqinvr.o(.text) refers to freqinvr.o(.data) for .data
    regs.o(.text) refers to modbus.o(.text) for mbInsCmd485
    regs.o(.text) refers to msg.o(.text) for Msg
    regs.o(.text) refers to strcpy.o(.text) for strcpy
    regs.o(.text) refers to fs.o(.text) for FS_Assign
    regs.o(.text) refers to bfs.o(.text) for bFS_Read
    regs.o(.text) refers to rt_memclr_w.o(.text) for __aeabi_memclr4
    regs.o(.text) refers to handlers.o(.data) for pRCS
    regs.o(.text) refers to regs.o(.data) for .data
    regs.o(.text) refers to keypad.o(.data) for pUsesKP485
    regs.o(.text) refers to regs.o(.bss) for .bss
    regs.o(.text) refers to motor_x.o(.bss) for ms_X
    regs.o(.text) refers to motor_y.o(.bss) for ms_Y
    regs.o(.text) refers to motor_z.o(.bss) for ms_Z
    regs.o(.text) refers to motors.o(.data) for Index
    regs.o(.text) refers to virtualpins.o(.data) for pvPins
    regs.o(.text) refers to motors.o(.bss) for fmvc
    regs.o(.text) refers to freqinvr.o(.data) for pFIPWM
    regs.o(.text) refers to handlers.o(.data) for pWF_CRC
    regs.o(.text) refers to keypad.o(.data) for pYmove
    regs.o(.text) refers to keypad.o(.data) for pZmove
    regs.o(.text) refers to keypad.o(.data) for pXmove
    regs.o(.text) refers to keypad.o(.data) for pUnusedmove
    regs.o(.text) refers to keypad.o(.data) for pBtn5
    regs.o(.text) refers to keypad.o(.data) for pAxisSwitch
    regs.o(.text) refers to keypad.o(.data) for pBUZZ
    regs.o(.text) refers to rt_memcpy_v6.o(.text) for __aeabi_memcpy
    regs.o(.text) refers to virtualpins.o(.text) for FormQPinTable
    regs.o(.text) refers to fflt_clz.o(x$fpl$ffltu) for __aeabi_ui2f
    regs.o(.text) refers to fdiv.o(x$fpl$fdiv) for __aeabi_fdiv
    regs.o(.text) refers to fmul.o(x$fpl$fmul) for __aeabi_fmul
    regs.o(.text) refers to ffix.o(x$fpl$ffix) for __aeabi_f2iz
    regs.o(.text) refers to motors.o(.text) for InitMotorStructF
    regs.o(.text) refers to rt_memclr.o(.text) for __aeabi_memclr
    regs.o(.text) refers to vpfrz.o(.data) for vPinsdef
    keypad.o(.text) refers to modbus.o(.text) for mbCmd485
    keypad.o(.text) refers to rt_memcpy_v6.o(.text) for __aeabi_memcpy
    keypad.o(.text) refers to keypad.o(.data) for .data
    keypad.o(.text) refers to queue.o(.bss) for qu
    motor_x.o(.text) refers to virtualpins.o(.text) for QSetPin
    motor_x.o(.text) refers to msg.o(.text) for Msg
    motor_x.o(.text) refers to motor_x.o(i.MovePosX) for MovePosX
    motor_x.o(.text) refers to motor_x.o(i.PositX) for PositX
    motor_x.o(.text) refers to motor_x.o(i.MoveBtnX) for MoveBtnX
    motor_x.o(.text) refers to motor_x.o(.bss) for .bss
    motor_x.o(.text) refers to motors.o(.bss) for fmvc
    motor_x.o(.text) refers to motors.o(.data) for ClrF
    motor_x.o(.text) refers to motor_x.o(.data) for .data
    motor_y.o(.text) refers to virtualpins.o(.text) for QSetPin
    motor_y.o(.text) refers to msg.o(.text) for Msg
    motor_y.o(.text) refers to motor_y.o(i.MovePosY) for MovePosY
    motor_y.o(.text) refers to motor_y.o(i.PositY) for PositY
    motor_y.o(.text) refers to motor_y.o(i.MoveBtnY) for MoveBtnY
    motor_y.o(.text) refers to motor_y.o(.bss) for .bss
    motor_y.o(.text) refers to motors.o(.bss) for fmvc
    motor_y.o(.text) refers to motors.o(.data) for ClrF
    motor_y.o(.text) refers to motor_y.o(.data) for .data
    motor_z.o(.text) refers to virtualpins.o(.text) for QSetPin
    motor_z.o(.text) refers to msg.o(.text) for Msg
    motor_z.o(.text) refers to motor_z.o(i.MovePosZ) for MovePosZ
    motor_z.o(.text) refers to motor_z.o(i.PositZ) for PositZ
    motor_z.o(.text) refers to motor_z.o(i.MoveBtnZ) for MoveBtnZ
    motor_z.o(.text) refers to motor_z.o(.bss) for .bss
    motor_z.o(.text) refers to motors.o(.bss) for fmvc
    motor_z.o(.text) refers to motors.o(.data) for ClrF
    motor_z.o(.text) refers to motor_z.o(.data) for .data
    c89vsprintf.o(.text) refers (Special) to _printf_a.o(.ARM.Collect$$_printf_percent$$00000006) for _printf_a
    c89vsprintf.o(.text) refers (Special) to _printf_c.o(.ARM.Collect$$_printf_percent$$00000013) for _printf_c
    c89vsprintf.o(.text) refers (Special) to _printf_charcount.o(.text) for _printf_charcount
    c89vsprintf.o(.text) refers (Special) to _printf_d.o(.ARM.Collect$$_printf_percent$$00000009) for _printf_d
    c89vsprintf.o(.text) refers (Special) to _printf_e.o(.ARM.Collect$$_printf_percent$$00000004) for _printf_e
    c89vsprintf.o(.text) refers (Special) to _printf_f.o(.ARM.Collect$$_printf_percent$$00000003) for _printf_f
    c89vsprintf.o(.text) refers (Special) to printf1.o(x$fpl$printf1) for _printf_fp_dec
    c89vsprintf.o(.text) refers (Special) to _printf_g.o(.ARM.Collect$$_printf_percent$$00000005) for _printf_g
    c89vsprintf.o(.text) refers (Special) to _printf_i.o(.ARM.Collect$$_printf_percent$$00000008) for _printf_i
    c89vsprintf.o(.text) refers (Special) to _printf_dec.o(.text) for _printf_int_dec
    c89vsprintf.o(.text) refers (Special) to _printf_l.o(.ARM.Collect$$_printf_percent$$00000012) for _printf_l
    c89vsprintf.o(.text) refers (Special) to _printf_lc.o(.ARM.Collect$$_printf_percent$$00000015) for _printf_lc
    c89vsprintf.o(.text) refers (Special) to _printf_ll.o(.ARM.Collect$$_printf_percent$$00000007) for _printf_ll
    c89vsprintf.o(.text) refers (Special) to _printf_lld.o(.ARM.Collect$$_printf_percent$$0000000E) for _printf_lld
    c89vsprintf.o(.text) refers (Special) to _printf_lli.o(.ARM.Collect$$_printf_percent$$0000000D) for _printf_lli
    c89vsprintf.o(.text) refers (Special) to _printf_llo.o(.ARM.Collect$$_printf_percent$$00000010) for _printf_llo
    c89vsprintf.o(.text) refers (Special) to _printf_llu.o(.ARM.Collect$$_printf_percent$$0000000F) for _printf_llu
    c89vsprintf.o(.text) refers (Special) to _printf_llx.o(.ARM.Collect$$_printf_percent$$00000011) for _printf_llx
    c89vsprintf.o(.text) refers (Special) to _printf_longlong_dec.o(.text) for _printf_longlong_dec
    c89vsprintf.o(.text) refers (Special) to _printf_hex_int_ll_ptr.o(.text) for _printf_longlong_hex
    c89vsprintf.o(.text) refers (Special) to _printf_oct_int_ll.o(.text) for _printf_longlong_oct
    c89vsprintf.o(.text) refers (Special) to _printf_ls.o(.ARM.Collect$$_printf_percent$$00000016) for _printf_ls
    c89vsprintf.o(.text) refers (Special) to _printf_n.o(.ARM.Collect$$_printf_percent$$00000001) for _printf_n
    c89vsprintf.o(.text) refers (Special) to _printf_o.o(.ARM.Collect$$_printf_percent$$0000000B) for _printf_o
    c89vsprintf.o(.text) refers (Special) to _printf_p.o(.ARM.Collect$$_printf_percent$$00000002) for _printf_p
    c89vsprintf.o(.text) refers (Special) to _printf_percent.o(.ARM.Collect$$_printf_percent$$00000000) for _printf_percent
    c89vsprintf.o(.text) refers (Special) to _printf_pad.o(.text) for _printf_post_padding
    c89vsprintf.o(.text) refers (Special) to _printf_s.o(.ARM.Collect$$_printf_percent$$00000014) for _printf_s
    c89vsprintf.o(.text) refers (Special) to _printf_str.o(.text) for _printf_str
    c89vsprintf.o(.text) refers (Special) to _printf_truncate.o(.text) for _printf_truncate_signed
    c89vsprintf.o(.text) refers (Special) to _printf_u.o(.ARM.Collect$$_printf_percent$$0000000A) for _printf_u
    c89vsprintf.o(.text) refers (Special) to _printf_wctomb.o(.text) for _printf_wctomb
    c89vsprintf.o(.text) refers (Special) to _printf_x.o(.ARM.Collect$$_printf_percent$$0000000C) for _printf_x
    c89vsprintf.o(.text) refers to _printf_char_common.o(.text) for _printf_char_common
    c89vsprintf.o(.text) refers to _sputc.o(.text) for _sputc
    __2sprintf.o(.text) refers to _printf_char_common.o(.text) for _printf_char_common
    __2sprintf.o(.text) refers to _sputc.o(.text) for _sputc
    noretval__2sprintf.o(.text) refers to _printf_char_common.o(.text) for _printf_char_common
    noretval__2sprintf.o(.text) refers to _sputc.o(.text) for _sputc
    __printf.o(.text) refers to _printf_percent.o(.ARM.Collect$$_printf_percent$$00000000) for _printf_percent
    _printf_dec.o(.text) refers (Weak) to _printf_truncate.o(.text) for _printf_truncate_signed
    _printf_dec.o(.text) refers (Weak) to _printf_truncate.o(.text) for _printf_truncate_unsigned
    _printf_dec.o(.text) refers to _printf_intcommon.o(.text) for _printf_int_common
    _printf_hex_ll.o(.text) refers to _printf_intcommon.o(.text) for _printf_int_common
    _printf_hex_ll.o(.text) refers to _printf_hex_ll.o(.constdata) for .constdata
    _printf_hex_int.o(.text) refers (Weak) to _printf_truncate.o(.text) for _printf_truncate_unsigned
    _printf_hex_int.o(.text) refers to _printf_intcommon.o(.text) for _printf_int_common
    _printf_hex_int.o(.text) refers to _printf_hex_int.o(.constdata) for .constdata
    _printf_hex_int_ll.o(.text) refers to _printf_intcommon.o(.text) for _printf_int_common
    _printf_hex_int_ll.o(.text) refers (Weak) to _printf_truncate.o(.text) for _printf_truncate_unsigned
    _printf_hex_int_ll.o(.text) refers to _printf_hex_int_ll.o(.constdata) for .constdata
    _printf_hex_ptr.o(.text) refers to _printf_intcommon.o(.text) for _printf_int_common
    _printf_hex_ptr.o(.text) refers to _printf_hex_ptr.o(.constdata) for .constdata
    _printf_hex_int_ptr.o(.text) refers to _printf_intcommon.o(.text) for _printf_int_common
    _printf_hex_int_ptr.o(.text) refers (Weak) to _printf_truncate.o(.text) for _printf_truncate_unsigned
    _printf_hex_int_ptr.o(.text) refers to _printf_hex_int_ptr.o(.constdata) for .constdata
    _printf_hex_ll_ptr.o(.text) refers to _printf_intcommon.o(.text) for _printf_int_common
    _printf_hex_ll_ptr.o(.text) refers to _printf_hex_ll_ptr.o(.constdata) for .constdata
    _printf_hex_int_ll_ptr.o(.text) refers to _printf_intcommon.o(.text) for _printf_int_common
    _printf_hex_int_ll_ptr.o(.text) refers (Weak) to _printf_truncate.o(.text) for _printf_truncate_unsigned
    _printf_hex_int_ll_ptr.o(.text) refers to _printf_hex_int_ll_ptr.o(.constdata) for .constdata
    __printf_flags.o(.text) refers to _printf_percent.o(.ARM.Collect$$_printf_percent$$00000000) for _printf_percent
    __printf_flags.o(.text) refers to __printf_flags.o(.constdata) for .constdata
    __printf_ss.o(.text) refers to _printf_percent.o(.ARM.Collect$$_printf_percent$$00000000) for _printf_percent
    __printf_flags_ss.o(.text) refers to _printf_percent.o(.ARM.Collect$$_printf_percent$$00000000) for _printf_percent
    __printf_flags_ss.o(.text) refers to __printf_flags_ss.o(.constdata) for .constdata
    __printf_wp.o(.text) refers to __printf_wp.o(i._is_digit) for _is_digit
    __printf_wp.o(.text) refers to _printf_percent.o(.ARM.Collect$$_printf_percent$$00000000) for _printf_percent
    __printf_flags_wp.o(.text) refers to __printf_wp.o(i._is_digit) for _is_digit
    __printf_flags_wp.o(.text) refers to _printf_percent.o(.ARM.Collect$$_printf_percent$$00000000) for _printf_percent
    __printf_flags_wp.o(.text) refers to __printf_flags_wp.o(.constdata) for .constdata
    __printf_ss_wp.o(.text) refers to __printf_wp.o(i._is_digit) for _is_digit
    __printf_ss_wp.o(.text) refers to _printf_percent.o(.ARM.Collect$$_printf_percent$$00000000) for _printf_percent
    __printf_flags_ss_wp.o(.text) refers to __printf_wp.o(i._is_digit) for _is_digit
    __printf_flags_ss_wp.o(.text) refers to _printf_percent.o(.ARM.Collect$$_printf_percent$$00000000) for _printf_percent
    __printf_flags_ss_wp.o(.text) refers to __printf_flags_ss_wp.o(.constdata) for .constdata
    _printf_x.o(.ARM.Collect$$_printf_percent$$0000000C) refers (Weak) to _printf_hex_int_ll_ptr.o(.text) for _printf_int_hex
    _printf_d.o(.ARM.Collect$$_printf_percent$$00000009) refers (Weak) to _printf_dec.o(.text) for _printf_int_dec
    _printf_f.o(.ARM.Collect$$_printf_percent$$00000003) refers (Weak) to printf1.o(x$fpl$printf1) for _printf_fp_dec
    _printf_percent.o(.ARM.Collect$$_printf_percent$$00000000) refers (Special) to _printf_percent_end.o(.ARM.Collect$$_printf_percent$$00000017) for _printf_percent_end
    rt_memcpy_v6.o(.text) refers to rt_memcpy_w.o(.text) for __aeabi_memcpy4
    rt_memclr.o(.text) refers to rt_memclr_w.o(.text) for _memset_w
    __main.o(!!!main) refers to __rtentry.o(.ARM.Collect$$rtentry$$00000000) for __rt_entry
    d2f.o(x$fpl$d2f) refers (Special) to usenofp.o(x$fpl$usenofp) for __I$use$fp
    d2f.o(x$fpl$d2f) refers to fretinf.o(x$fpl$fretinf) for __fpl_fretinf
    d2f.o(x$fpl$d2f) refers to dnaninf.o(x$fpl$dnaninf) for __fpl_dnaninf
    daddsub_clz.o(x$fpl$dadd) refers (Special) to usenofp.o(x$fpl$usenofp) for __I$use$fp
    daddsub_clz.o(x$fpl$dadd) refers to daddsub_clz.o(x$fpl$dsub) for _dsub1
    daddsub_clz.o(x$fpl$dadd) refers to dretinf.o(x$fpl$dretinf) for __fpl_dretinf
    daddsub_clz.o(x$fpl$dadd) refers to dnaninf.o(x$fpl$dnaninf) for __fpl_dnaninf
    daddsub_clz.o(x$fpl$drsb) refers (Special) to usenofp.o(x$fpl$usenofp) for __I$use$fp
    daddsub_clz.o(x$fpl$drsb) refers to daddsub_clz.o(x$fpl$dadd) for _dadd1
    daddsub_clz.o(x$fpl$drsb) refers to daddsub_clz.o(x$fpl$dsub) for _dsub1
    daddsub_clz.o(x$fpl$dsub) refers (Special) to usenofp.o(x$fpl$usenofp) for __I$use$fp
    daddsub_clz.o(x$fpl$dsub) refers to daddsub_clz.o(x$fpl$dadd) for _dadd1
    daddsub_clz.o(x$fpl$dsub) refers to dnaninf.o(x$fpl$dnaninf) for __fpl_dnaninf
    ddiv.o(x$fpl$drdiv) refers (Special) to usenofp.o(x$fpl$usenofp) for __I$use$fp
    ddiv.o(x$fpl$drdiv) refers to ddiv.o(x$fpl$ddiv) for ddiv_entry
    ddiv.o(x$fpl$ddiv) refers (Special) to usenofp.o(x$fpl$usenofp) for __I$use$fp
    ddiv.o(x$fpl$ddiv) refers to dretinf.o(x$fpl$dretinf) for __fpl_dretinf
    ddiv.o(x$fpl$ddiv) refers to dnaninf.o(x$fpl$dnaninf) for __fpl_dnaninf
    dfix.o(x$fpl$dfix) refers (Special) to usenofp.o(x$fpl$usenofp) for __I$use$fp
    dfix.o(x$fpl$dfix) refers to dnaninf.o(x$fpl$dnaninf) for __fpl_dnaninf
    dfix.o(x$fpl$dfixr) refers (Special) to usenofp.o(x$fpl$usenofp) for __I$use$fp
    dfix.o(x$fpl$dfixr) refers to dnaninf.o(x$fpl$dnaninf) for __fpl_dnaninf
    dfixu.o(x$fpl$dfixu) refers (Special) to usenofp.o(x$fpl$usenofp) for __I$use$fp
    dfixu.o(x$fpl$dfixu) refers to dnaninf.o(x$fpl$dnaninf) for __fpl_dnaninf
    dfixu.o(x$fpl$dfixur) refers (Special) to usenofp.o(x$fpl$usenofp) for __I$use$fp
    dfixu.o(x$fpl$dfixur) refers to dnaninf.o(x$fpl$dnaninf) for __fpl_dnaninf
    dfixull.o(x$fpl$llufromd) refers (Special) to usenofp.o(x$fpl$usenofp) for __I$use$fp
    dfixull.o(x$fpl$llufromd) refers to dnaninf.o(x$fpl$dnaninf) for __fpl_dnaninf
    dfixull.o(x$fpl$llufromdr) refers (Special) to usenofp.o(x$fpl$usenofp) for __I$use$fp
    dfixull.o(x$fpl$llufromdr) refers to dnaninf.o(x$fpl$dnaninf) for __fpl_dnaninf
    dflt_clz.o(x$fpl$dfltu) refers (Special) to usenofp.o(x$fpl$usenofp) for __I$use$fp
    dflt_clz.o(x$fpl$dflt) refers (Special) to usenofp.o(x$fpl$usenofp) for __I$use$fp
    dflt_clz.o(x$fpl$dfltn) refers (Special) to usenofp.o(x$fpl$usenofp) for __I$use$fp
    dfltll_clz.o(x$fpl$dfltll) refers (Special) to usenofp.o(x$fpl$usenofp) for __I$use$fp
    dfltll_clz.o(x$fpl$dfltull) refers (Special) to usenofp.o(x$fpl$usenofp) for __I$use$fp
    dmul.o(x$fpl$dmul) refers (Special) to usenofp.o(x$fpl$usenofp) for __I$use$fp
    dmul.o(x$fpl$dmul) refers to dretinf.o(x$fpl$dretinf) for __fpl_dretinf
    dmul.o(x$fpl$dmul) refers to dnaninf.o(x$fpl$dnaninf) for __fpl_dnaninf
    f2d.o(x$fpl$f2d) refers (Special) to usenofp.o(x$fpl$usenofp) for __I$use$fp
    f2d.o(x$fpl$f2d) refers to fnaninf.o(x$fpl$fnaninf) for __fpl_fnaninf
    f2d.o(x$fpl$f2d) refers to dretinf.o(x$fpl$dretinf) for __fpl_dretinf
    faddsub_clz.o(x$fpl$fadd) refers (Special) to usenofp.o(x$fpl$usenofp) for __I$use$fp
    faddsub_clz.o(x$fpl$fadd) refers to faddsub_clz.o(x$fpl$fsub) for _fsub1
    faddsub_clz.o(x$fpl$fadd) refers to fretinf.o(x$fpl$fretinf) for __fpl_fretinf
    faddsub_clz.o(x$fpl$fadd) refers to fnaninf.o(x$fpl$fnaninf) for __fpl_fnaninf
    faddsub_clz.o(x$fpl$frsb) refers (Special) to usenofp.o(x$fpl$usenofp) for __I$use$fp
    faddsub_clz.o(x$fpl$frsb) refers to faddsub_clz.o(x$fpl$fadd) for _fadd1
    faddsub_clz.o(x$fpl$frsb) refers to faddsub_clz.o(x$fpl$fsub) for _fsub1
    faddsub_clz.o(x$fpl$fsub) refers (Special) to usenofp.o(x$fpl$usenofp) for __I$use$fp
    faddsub_clz.o(x$fpl$fsub) refers to faddsub_clz.o(x$fpl$fadd) for _fadd1
    faddsub_clz.o(x$fpl$fsub) refers to fnaninf.o(x$fpl$fnaninf) for __fpl_fnaninf
    fdiv.o(x$fpl$frdiv) refers (Special) to usenofp.o(x$fpl$usenofp) for __I$use$fp
    fdiv.o(x$fpl$frdiv) refers to fdiv.o(x$fpl$fdiv) for _fdiv1
    fdiv.o(x$fpl$fdiv) refers (Special) to usenofp.o(x$fpl$usenofp) for __I$use$fp
    fdiv.o(x$fpl$fdiv) refers to fretinf.o(x$fpl$fretinf) for __fpl_fretinf
    fdiv.o(x$fpl$fdiv) refers to fnaninf.o(x$fpl$fnaninf) for __fpl_fnaninf
    feqf.o(x$fpl$feqf) refers (Special) to usenofp.o(x$fpl$usenofp) for __I$use$fp
    feqf.o(x$fpl$feqf) refers to fnaninf.o(x$fpl$fnaninf) for __fpl_fnaninf
    feqf.o(x$fpl$feqf) refers to fcmpi.o(x$fpl$fcmpinf) for __fpl_fcmp_Inf
    ffix.o(x$fpl$ffix) refers (Special) to usenofp.o(x$fpl$usenofp) for __I$use$fp
    ffix.o(x$fpl$ffix) refers to fnaninf.o(x$fpl$fnaninf) for __fpl_fnaninf
    ffix.o(x$fpl$ffixr) refers (Special) to usenofp.o(x$fpl$usenofp) for __I$use$fp
    ffix.o(x$fpl$ffixr) refers to fnaninf.o(x$fpl$fnaninf) for __fpl_fnaninf
    fflt_clz.o(x$fpl$ffltu) refers (Special) to usenofp.o(x$fpl$usenofp) for __I$use$fp
    fflt_clz.o(x$fpl$fflt) refers (Special) to usenofp.o(x$fpl$usenofp) for __I$use$fp
    fflt_clz.o(x$fpl$ffltn) refers (Special) to usenofp.o(x$fpl$usenofp) for __I$use$fp
    fleqf.o(x$fpl$fleqf) refers (Special) to usenofp.o(x$fpl$usenofp) for __I$use$fp
    fleqf.o(x$fpl$fleqf) refers to fnaninf.o(x$fpl$fnaninf) for __fpl_fnaninf
    fleqf.o(x$fpl$fleqf) refers to fcmpi.o(x$fpl$fcmpinf) for __fpl_fcmp_Inf
    fmul.o(x$fpl$fmul) refers (Special) to usenofp.o(x$fpl$usenofp) for __I$use$fp
    fmul.o(x$fpl$fmul) refers to fretinf.o(x$fpl$fretinf) for __fpl_fretinf
    fmul.o(x$fpl$fmul) refers to fnaninf.o(x$fpl$fnaninf) for __fpl_fnaninf
    frleqf.o(x$fpl$frleqf) refers (Special) to usenofp.o(x$fpl$usenofp) for __I$use$fp
    frleqf.o(x$fpl$frleqf) refers to fleqf.o(x$fpl$fleqf) for __fpl_fcmple_InfNaN
    printf1.o(x$fpl$printf1) refers to _printf_fp_dec.o(.text) for _printf_fp_dec_real
    acos.o(i.__softfp_acos) refers (Special) to usenofp.o(x$fpl$usenofp) for __I$use$fp
    acos.o(i.__softfp_acos) refers to acos.o(i.acos) for acos
    acos.o(i.acos) refers (Special) to usenofp.o(x$fpl$usenofp) for __I$use$fp
    acos.o(i.acos) refers to dunder.o(i.__mathlib_dbl_infnan) for __mathlib_dbl_infnan
    acos.o(i.acos) refers to _rserrno.o(.text) for __set_errno
    acos.o(i.acos) refers to dunder.o(i.__mathlib_dbl_invalid) for __mathlib_dbl_invalid
    acos.o(i.acos) refers to dmul.o(x$fpl$dmul) for __aeabi_dmul
    acos.o(i.acos) refers to poly.o(i.__kernel_poly) for __kernel_poly
    acos.o(i.acos) refers to daddsub_clz.o(x$fpl$dadd) for __aeabi_dadd
    acos.o(i.acos) refers to ddiv.o(x$fpl$ddiv) for __aeabi_ddiv
    acos.o(i.acos) refers to daddsub_clz.o(x$fpl$drsb) for __aeabi_drsub
    acos.o(i.acos) refers to scalbn.o(x$fpl$scalbn) for __ARM_scalbn
    acos.o(i.acos) refers to sqrt.o(i.sqrt) for sqrt
    acos.o(i.acos) refers to daddsub_clz.o(x$fpl$dsub) for __aeabi_dsub
    acos.o(i.acos) refers to acos.o(.constdata) for .constdata
    acos.o(.constdata) refers (Special) to usenofp.o(x$fpl$usenofp) for __I$use$fp
    acos_x.o(i.____softfp_acos$lsc) refers (Special) to usenofp.o(x$fpl$usenofp) for __I$use$fp
    acos_x.o(i.____softfp_acos$lsc) refers to acos_x.o(i.__acos$lsc) for __acos$lsc
    acos_x.o(i.__acos$lsc) refers (Special) to usenofp.o(x$fpl$usenofp) for __I$use$fp
    acos_x.o(i.__acos$lsc) refers to dunder.o(i.__mathlib_dbl_infnan) for __mathlib_dbl_infnan
    acos_x.o(i.__acos$lsc) refers to _rserrno.o(.text) for __set_errno
    acos_x.o(i.__acos$lsc) refers to dmul.o(x$fpl$dmul) for __aeabi_dmul
    acos_x.o(i.__acos$lsc) refers to poly.o(i.__kernel_poly) for __kernel_poly
    acos_x.o(i.__acos$lsc) refers to daddsub_clz.o(x$fpl$dadd) for __aeabi_dadd
    acos_x.o(i.__acos$lsc) refers to ddiv.o(x$fpl$ddiv) for __aeabi_ddiv
    acos_x.o(i.__acos$lsc) refers to daddsub_clz.o(x$fpl$drsb) for __aeabi_drsub
    acos_x.o(i.__acos$lsc) refers to scalbn.o(x$fpl$scalbn) for __ARM_scalbn
    acos_x.o(i.__acos$lsc) refers to sqrt.o(i.sqrt) for sqrt
    acos_x.o(i.__acos$lsc) refers to daddsub_clz.o(x$fpl$dsub) for __aeabi_dsub
    acos_x.o(i.__acos$lsc) refers to acos_x.o(.constdata) for .constdata
    acos_x.o(.constdata) refers (Special) to usenofp.o(x$fpl$usenofp) for __I$use$fp
    ceil.o(i.__softfp_ceil) refers (Special) to usenofp.o(x$fpl$usenofp) for __I$use$fp
    ceil.o(i.__softfp_ceil) refers to ceil.o(i.ceil) for ceil
    ceil.o(i.ceil) refers (Special) to usenofp.o(x$fpl$usenofp) for __I$use$fp
    ceil.o(i.ceil) refers to daddsub_clz.o(x$fpl$dadd) for __aeabi_dadd
    ceil.o(i.ceil) refers to drleqf.o(x$fpl$drleqf) for __aeabi_cdrcmple
    ceil.o(i.ceil) refers to daddsub_clz.o(x$fpl$drsb) for __aeabi_drsub
    sqrt.o(i.__softfp_sqrt) refers (Special) to usenofp.o(x$fpl$usenofp) for __I$use$fp
    sqrt.o(i.__softfp_sqrt) refers to dsqrt_noumaal.o(x$fpl$dsqrt) for _dsqrt
    sqrt.o(i.__softfp_sqrt) refers to _rserrno.o(.text) for __set_errno
    sqrt.o(i.sqrt) refers (Special) to usenofp.o(x$fpl$usenofp) for __I$use$fp
    sqrt.o(i.sqrt) refers to dsqrt_noumaal.o(x$fpl$dsqrt) for _dsqrt
    sqrt.o(i.sqrt) refers to _rserrno.o(.text) for __set_errno
    sqrt_x.o(i.____softfp_sqrt$lsc) refers (Special) to usenofp.o(x$fpl$usenofp) for __I$use$fp
    sqrt_x.o(i.____softfp_sqrt$lsc) refers to dleqf.o(x$fpl$dleqf) for __aeabi_cdcmple
    sqrt_x.o(i.____softfp_sqrt$lsc) refers to _rserrno.o(.text) for __set_errno
    sqrt_x.o(i.____softfp_sqrt$lsc) refers to dsqrt_noumaal.o(x$fpl$dsqrt) for _dsqrt
    sqrt_x.o(i.__sqrt$lsc) refers (Special) to usenofp.o(x$fpl$usenofp) for __I$use$fp
    sqrt_x.o(i.__sqrt$lsc) refers to dleqf.o(x$fpl$dleqf) for __aeabi_cdcmple
    sqrt_x.o(i.__sqrt$lsc) refers to _rserrno.o(.text) for __set_errno
    sqrt_x.o(i.__sqrt$lsc) refers to dsqrt_noumaal.o(x$fpl$dsqrt) for _dsqrt
    __rtentry.o(.ARM.Collect$$rtentry$$00000000) refers (Special) to __rtentry2.o(.ARM.Collect$$rtentry$$0000000A) for __rt_entry_li
    __rtentry.o(.ARM.Collect$$rtentry$$00000000) refers (Special) to __rtentry2.o(.ARM.Collect$$rtentry$$0000000D) for __rt_entry_main
    __rtentry.o(.ARM.Collect$$rtentry$$00000000) refers (Special) to __rtentry2.o(.ARM.Collect$$rtentry$$0000000C) for __rt_entry_postli_1
    __rtentry.o(.ARM.Collect$$rtentry$$00000000) refers (Special) to __rtentry2.o(.ARM.Collect$$rtentry$$00000009) for __rt_entry_postsh_1
    __rtentry.o(.ARM.Collect$$rtentry$$00000000) refers (Special) to __rtentry2.o(.ARM.Collect$$rtentry$$00000002) for __rt_entry_presh_1
    __rtentry.o(.ARM.Collect$$rtentry$$00000000) refers (Special) to __rtentry4.o(.ARM.Collect$$rtentry$$00000004) for __rt_entry_sh
    aeabi_ldiv0_sigfpe.o(.text) refers to rt_div0.o(.text) for __rt_div0
    _rserrno.o(.text) refers to rt_errno_addr_intlibspace.o(.text) for __aeabi_errno_addr
    _printf_str.o(.text) refers (Special) to _printf_char.o(.text) for _printf_cs_common
    _printf_str.o(.text) refers (Weak) to _printf_pad.o(.text) for _printf_pre_padding
    _printf_str.o(.text) refers (Weak) to _printf_pad.o(.text) for _printf_post_padding
    _printf_intcommon.o(.text) refers (Weak) to _printf_pad.o(.text) for _printf_pre_padding
    _printf_intcommon.o(.text) refers (Weak) to _printf_pad.o(.text) for _printf_pre_padding
    _printf_intcommon.o(.text) refers (Weak) to _printf_pad.o(.text) for _printf_post_padding
    _printf_fp_dec.o(.text) refers (Special) to usenofp.o(x$fpl$usenofp) for __I$use$fp
    _printf_fp_dec.o(.text) refers (Special) to lc_numeric_c.o(locale$$code) for _get_lc_numeric
    _printf_fp_dec.o(.text) refers to bigflt0.o(.text) for _btod_etento
    _printf_fp_dec.o(.text) refers to btod.o(CL$$btod_d2e) for _btod_d2e
    _printf_fp_dec.o(.text) refers to btod.o(CL$$btod_ediv) for _btod_ediv
    _printf_fp_dec.o(.text) refers to btod.o(CL$$btod_emul) for _btod_emul
    _printf_fp_dec.o(.text) refers to lludiv10.o(.text) for _ll_udiv10
    _printf_fp_dec.o(.text) refers to fpclassify.o(i.__ARM_fpclassify) for __ARM_fpclassify
    _printf_fp_dec.o(.text) refers to _printf_fp_infnan.o(.text) for _printf_fp_infnan
    _printf_fp_dec.o(.text) refers (Weak) to _printf_pad.o(.text) for _printf_pre_padding
    _printf_fp_dec.o(.text) refers (Weak) to _printf_pad.o(.text) for _printf_pre_padding
    _printf_fp_dec.o(.text) refers to rt_locale_intlibspace.o(.text) for __rt_locale
    _printf_fp_dec.o(.text) refers (Weak) to _printf_pad.o(.text) for _printf_post_padding
    _printf_char_common.o(.text) refers to __printf_flags_ss_wp.o(.text) for __printf
    _printf_wctomb.o(.text) refers (Special) to _printf_wchar.o(.text) for _printf_lcs_common
    _printf_wctomb.o(.text) refers to _wcrtomb.o(.text) for _wcrtomb
    _printf_wctomb.o(.text) refers (Weak) to _printf_pad.o(.text) for _printf_pre_padding
    _printf_wctomb.o(.text) refers (Weak) to _printf_pad.o(.text) for _printf_post_padding
    _printf_wctomb.o(.text) refers to _printf_wctomb.o(.constdata) for .constdata
    _printf_wctomb.o(.constdata) refers (Special) to _printf_wchar.o(.text) for _printf_lcs_common
    _printf_longlong_dec.o(.text) refers to lludiv10.o(.text) for _ll_udiv10
    _printf_longlong_dec.o(.text) refers to _printf_intcommon.o(.text) for _printf_int_common
    _printf_oct_ll.o(.text) refers to _printf_intcommon.o(.text) for _printf_int_common
    _printf_oct_int.o(.text) refers (Weak) to _printf_truncate.o(.text) for _printf_truncate_unsigned
    _printf_oct_int.o(.text) refers to _printf_intcommon.o(.text) for _printf_int_common
    _printf_oct_int_ll.o(.text) refers to _printf_intcommon.o(.text) for _printf_int_common
    _printf_oct_int_ll.o(.text) refers (Weak) to _printf_truncate.o(.text) for _printf_truncate_unsigned
    _printf_c.o(.ARM.Collect$$_printf_percent$$00000013) refers (Weak) to _printf_char.o(.text) for _printf_char
    _printf_s.o(.ARM.Collect$$_printf_percent$$00000014) refers (Weak) to _printf_char.o(.text) for _printf_string
    _printf_n.o(.ARM.Collect$$_printf_percent$$00000001) refers (Weak) to _printf_charcount.o(.text) for _printf_charcount
    _printf_p.o(.ARM.Collect$$_printf_percent$$00000002) refers (Weak) to _printf_hex_int_ll_ptr.o(.text) for _printf_hex_ptr
    _printf_o.o(.ARM.Collect$$_printf_percent$$0000000B) refers (Weak) to _printf_oct_int_ll.o(.text) for _printf_int_oct
    _printf_i.o(.ARM.Collect$$_printf_percent$$00000008) refers (Weak) to _printf_dec.o(.text) for _printf_int_dec
    _printf_u.o(.ARM.Collect$$_printf_percent$$0000000A) refers (Weak) to _printf_dec.o(.text) for _printf_int_dec
    _printf_e.o(.ARM.Collect$$_printf_percent$$00000004) refers (Weak) to printf1.o(x$fpl$printf1) for _printf_fp_dec
    _printf_g.o(.ARM.Collect$$_printf_percent$$00000005) refers (Weak) to printf1.o(x$fpl$printf1) for _printf_fp_dec
    _printf_lli.o(.ARM.Collect$$_printf_percent$$0000000D) refers (Special) to _printf_ll.o(.ARM.Collect$$_printf_percent$$00000007) for _printf_ll
    _printf_lli.o(.ARM.Collect$$_printf_percent$$0000000D) refers (Weak) to _printf_longlong_dec.o(.text) for _printf_longlong_dec
    _printf_lld.o(.ARM.Collect$$_printf_percent$$0000000E) refers (Special) to _printf_ll.o(.ARM.Collect$$_printf_percent$$00000007) for _printf_ll
    _printf_lld.o(.ARM.Collect$$_printf_percent$$0000000E) refers (Weak) to _printf_longlong_dec.o(.text) for _printf_longlong_dec
    _printf_llu.o(.ARM.Collect$$_printf_percent$$0000000F) refers (Special) to _printf_ll.o(.ARM.Collect$$_printf_percent$$00000007) for _printf_ll
    _printf_llu.o(.ARM.Collect$$_printf_percent$$0000000F) refers (Weak) to _printf_longlong_dec.o(.text) for _printf_longlong_dec
    _printf_lc.o(.ARM.Collect$$_printf_percent$$00000015) refers (Special) to _printf_l.o(.ARM.Collect$$_printf_percent$$00000012) for _printf_l
    _printf_lc.o(.ARM.Collect$$_printf_percent$$00000015) refers (Weak) to _printf_wchar.o(.text) for _printf_wchar
    _printf_ls.o(.ARM.Collect$$_printf_percent$$00000016) refers (Special) to _printf_l.o(.ARM.Collect$$_printf_percent$$00000012) for _printf_l
    _printf_ls.o(.ARM.Collect$$_printf_percent$$00000016) refers (Weak) to _printf_wchar.o(.text) for _printf_wstring
    _printf_llo.o(.ARM.Collect$$_printf_percent$$00000010) refers (Special) to _printf_ll.o(.ARM.Collect$$_printf_percent$$00000007) for _printf_ll
    _printf_llo.o(.ARM.Collect$$_printf_percent$$00000010) refers (Weak) to _printf_oct_int_ll.o(.text) for _printf_ll_oct
    _printf_llx.o(.ARM.Collect$$_printf_percent$$00000011) refers (Special) to _printf_ll.o(.ARM.Collect$$_printf_percent$$00000007) for _printf_ll
    _printf_llx.o(.ARM.Collect$$_printf_percent$$00000011) refers (Weak) to _printf_hex_int_ll_ptr.o(.text) for _printf_ll_hex
    dleqf.o(x$fpl$dleqf) refers (Special) to usenofp.o(x$fpl$usenofp) for __I$use$fp
    dleqf.o(x$fpl$dleqf) refers to dnaninf.o(x$fpl$dnaninf) for __fpl_dnaninf
    dleqf.o(x$fpl$dleqf) refers to dcmpi.o(x$fpl$dcmpinf) for __fpl_dcmp_Inf
    dnaninf.o(x$fpl$dnaninf) refers (Special) to usenofp.o(x$fpl$usenofp) for __I$use$fp
    dretinf.o(x$fpl$dretinf) refers (Special) to usenofp.o(x$fpl$usenofp) for __I$use$fp
    drleqf.o(x$fpl$drleqf) refers (Special) to usenofp.o(x$fpl$usenofp) for __I$use$fp
    drleqf.o(x$fpl$drleqf) refers to dleqf.o(x$fpl$dleqf) for __fpl_dcmple_InfNaN
    dsqrt_noumaal.o(x$fpl$dsqrt) refers (Special) to usenofp.o(x$fpl$usenofp) for __I$use$fp
    dsqrt_noumaal.o(x$fpl$dsqrt) refers to dnaninf.o(x$fpl$dnaninf) for __fpl_dnaninf
    fcmpi.o(x$fpl$fcmpinf) refers (Special) to usenofp.o(x$fpl$usenofp) for __I$use$fp
    fnaninf.o(x$fpl$fnaninf) refers (Special) to usenofp.o(x$fpl$usenofp) for __I$use$fp
    fretinf.o(x$fpl$fretinf) refers (Special) to usenofp.o(x$fpl$usenofp) for __I$use$fp
    scalbn.o(x$fpl$scalbn) refers (Special) to usenofp.o(x$fpl$usenofp) for __I$use$fp
    scalbn.o(x$fpl$scalbn) refers to dcheck1.o(x$fpl$dcheck1) for __fpl_dcheck_NaN1
    dunder.o(i.__mathlib_dbl_divzero) refers to ddiv.o(x$fpl$ddiv) for __aeabi_ddiv
    dunder.o(i.__mathlib_dbl_infnan) refers to scalbn.o(x$fpl$scalbn) for __ARM_scalbn
    dunder.o(i.__mathlib_dbl_infnan2) refers to daddsub_clz.o(x$fpl$dadd) for __aeabi_dadd
    dunder.o(i.__mathlib_dbl_invalid) refers to ddiv.o(x$fpl$ddiv) for __aeabi_ddiv
    dunder.o(i.__mathlib_dbl_overflow) refers to scalbn.o(x$fpl$scalbn) for __ARM_scalbn
    dunder.o(i.__mathlib_dbl_posinfnan) refers to dmul.o(x$fpl$dmul) for __aeabi_dmul
    dunder.o(i.__mathlib_dbl_underflow) refers to scalbn.o(x$fpl$scalbn) for __ARM_scalbn
    poly.o(i.__kernel_poly) refers (Special) to usenofp.o(x$fpl$usenofp) for __I$use$fp
    poly.o(i.__kernel_poly) refers to dmul.o(x$fpl$dmul) for __aeabi_dmul
    poly.o(i.__kernel_poly) refers to daddsub_clz.o(x$fpl$dadd) for __aeabi_dadd
    __rtentry2.o(.ARM.Collect$$rtentry$$00000008) refers to boardinit2.o(.text) for _platform_post_stackheap_init
    __rtentry2.o(.ARM.Collect$$rtentry$$0000000A) refers to libinit.o(.ARM.Collect$$libinit$$00000000) for __rt_lib_init
    __rtentry2.o(.ARM.Collect$$rtentry$$0000000B) refers to boardinit3.o(.text) for _platform_post_lib_init
    __rtentry2.o(.ARM.Collect$$rtentry$$0000000D) refers to main.o(.text) for main
    __rtentry2.o(.ARM.Collect$$rtentry$$0000000D) refers to exit.o(.text) for exit
    __rtentry2.o(.ARM.exidx) refers to __rtentry2.o(.ARM.Collect$$rtentry$$00000001) for .ARM.Collect$$rtentry$$00000001
    __rtentry2.o(.ARM.exidx) refers to __rtentry2.o(.ARM.Collect$$rtentry$$00000008) for .ARM.Collect$$rtentry$$00000008
    __rtentry2.o(.ARM.exidx) refers to __rtentry2.o(.ARM.Collect$$rtentry$$0000000A) for .ARM.Collect$$rtentry$$0000000A
    __rtentry2.o(.ARM.exidx) refers to __rtentry2.o(.ARM.Collect$$rtentry$$0000000B) for .ARM.Collect$$rtentry$$0000000B
    __rtentry2.o(.ARM.exidx) refers to __rtentry2.o(.ARM.Collect$$rtentry$$0000000D) for .ARM.Collect$$rtentry$$0000000D
    __rtentry4.o(.ARM.Collect$$rtentry$$00000004) refers to sys_stackheap_outer.o(.text) for __user_setup_stackheap
    __rtentry4.o(.ARM.exidx) refers to __rtentry4.o(.ARM.Collect$$rtentry$$00000004) for .ARM.Collect$$rtentry$$00000004
    rt_div0.o(.text) refers to defsig_fpe_outer.o(.text) for __rt_SIGFPE
    rt_locale.o(.text) refers to rt_locale.o(.bss) for __rt_locale_data
    rt_locale_intlibspace.o(.text) refers to libspace.o(.bss) for __libspace_start
    rt_errno_addr.o(.text) refers to rt_errno_addr.o(.bss) for __aeabi_errno_addr_data
    rt_errno_addr_intlibspace.o(.text) refers to libspace.o(.bss) for __libspace_start
    _printf_fp_infnan.o(.text) refers (Weak) to _printf_pad.o(.text) for _printf_pre_padding
    _printf_fp_infnan.o(.text) refers (Weak) to _printf_pad.o(.text) for _printf_post_padding
    _printf_char.o(.text) refers (Weak) to _printf_str.o(.text) for _printf_str
    _printf_wchar.o(.text) refers (Weak) to _printf_wctomb.o(.text) for _printf_wctomb
    bigflt0.o(.text) refers (Special) to usenofp.o(x$fpl$usenofp) for __I$use$fp
    bigflt0.o(.text) refers to btod.o(CL$$btod_emul) for _btod_emul
    bigflt0.o(.text) refers to btod.o(CL$$btod_ediv) for _btod_ediv
    bigflt0.o(.text) refers to bigflt0.o(.constdata) for .constdata
    bigflt0.o(.constdata) refers (Special) to usenofp.o(x$fpl$usenofp) for __I$use$fp
    btod.o(CL$$btod_d2e) refers (Special) to usenofp.o(x$fpl$usenofp) for __I$use$fp
    btod.o(CL$$btod_d2e) refers to btod.o(CL$$btod_d2e_norm_op1) for _d2e_norm_op1
    btod.o(CL$$btod_d2e_norm_op1) refers (Special) to usenofp.o(x$fpl$usenofp) for __I$use$fp
    btod.o(CL$$btod_d2e_norm_op1) refers to btod.o(CL$$btod_d2e_denorm_low) for _d2e_denorm_low
    btod.o(CL$$btod_d2e_denorm_low) refers (Special) to usenofp.o(x$fpl$usenofp) for __I$use$fp
    btod.o(CL$$btod_emul) refers (Special) to usenofp.o(x$fpl$usenofp) for __I$use$fp
    btod.o(CL$$btod_emul) refers to btod.o(CL$$btod_mult_common) for __btod_mult_common
    btod.o(CL$$btod_emul) refers to btod.o(CL$$btod_e2e) for _e2e
    btod.o(CL$$btod_ediv) refers (Special) to usenofp.o(x$fpl$usenofp) for __I$use$fp
    btod.o(CL$$btod_ediv) refers to btod.o(CL$$btod_div_common) for __btod_div_common
    btod.o(CL$$btod_ediv) refers to btod.o(CL$$btod_e2e) for _e2e
    btod.o(CL$$btod_emuld) refers (Special) to usenofp.o(x$fpl$usenofp) for __I$use$fp
    btod.o(CL$$btod_emuld) refers to btod.o(CL$$btod_mult_common) for __btod_mult_common
    btod.o(CL$$btod_emuld) refers to btod.o(CL$$btod_e2d) for _e2d
    btod.o(CL$$btod_edivd) refers (Special) to usenofp.o(x$fpl$usenofp) for __I$use$fp
    btod.o(CL$$btod_edivd) refers to btod.o(CL$$btod_div_common) for __btod_div_common
    btod.o(CL$$btod_edivd) refers to btod.o(CL$$btod_e2d) for _e2d
    btod.o(CL$$btod_e2e) refers (Special) to usenofp.o(x$fpl$usenofp) for __I$use$fp
    btod.o(CL$$btod_e2d) refers (Special) to usenofp.o(x$fpl$usenofp) for __I$use$fp
    btod.o(CL$$btod_e2d) refers to btod.o(CL$$btod_e2e) for _e2e
    btod.o(CL$$btod_mult_common) refers (Special) to usenofp.o(x$fpl$usenofp) for __I$use$fp
    btod.o(CL$$btod_div_common) refers (Special) to usenofp.o(x$fpl$usenofp) for __I$use$fp
    _wcrtomb.o(.text) refers to rt_ctype_table.o(.text) for __rt_ctype_table
    lc_numeric_c.o(locale$$data) refers (Special) to libinit2.o(.ARM.Collect$$libinit$$00000016) for __rt_lib_init_lc_numeric_2
    lc_numeric_c.o(locale$$code) refers (Special) to libinit2.o(.ARM.Collect$$libinit$$00000016) for __rt_lib_init_lc_numeric_2
    lc_numeric_c.o(locale$$code) refers to strcmpv7m.o(.text) for strcmp
    lc_numeric_c.o(locale$$code) refers to lc_numeric_c.o(locale$$data) for __lcnum_c_name
    dcheck1.o(x$fpl$dcheck1) refers (Special) to usenofp.o(x$fpl$usenofp) for __I$use$fp
    dcheck1.o(x$fpl$dcheck1) refers to retnan.o(x$fpl$retnan) for __fpl_return_NaN
    dcmpi.o(x$fpl$dcmpinf) refers (Special) to usenofp.o(x$fpl$usenofp) for __I$use$fp
    istatus.o(x$fpl$ieeestatus) refers (Special) to usenofp.o(x$fpl$usenofp) for __I$use$fp
    fpclassify.o(i.__ARM_fpclassify) refers (Special) to usenofp.o(x$fpl$usenofp) for __I$use$fp
    libspace.o(.text) refers to libspace.o(.bss) for __libspace_start
    sys_stackheap_outer.o(.text) refers to libspace.o(.text) for __user_perproc_libspace
    sys_stackheap_outer.o(.text) refers to startup_lpc17xx.o(.text) for __user_initial_stackheap
    rt_ctype_table.o(.text) refers to rt_locale_intlibspace.o(.text) for __rt_locale
    rt_ctype_table.o(.text) refers to lc_ctype_c.o(locale$$code) for _get_lc_ctype
    exit.o(.text) refers to rtexit.o(.ARM.Collect$$rtexit$$00000000) for __rt_exit
    defsig_fpe_outer.o(.text) refers to defsig_fpe_inner.o(.text) for __rt_SIGFPE_inner
    defsig_fpe_outer.o(.text) refers to defsig_exit.o(.text) for __sig_exit
    defsig_fpe_formal.o(.text) refers to rt_raise.o(.text) for __rt_raise
    libinit.o(.ARM.Collect$$libinit$$00000000) refers (Special) to libinit2.o(.ARM.Collect$$libinit$$0000002E) for __rt_lib_init_alloca_1
    libinit.o(.ARM.Collect$$libinit$$00000000) refers (Special) to libinit2.o(.ARM.Collect$$libinit$$0000002C) for __rt_lib_init_argv_1
    libinit.o(.ARM.Collect$$libinit$$00000000) refers (Special) to libinit2.o(.ARM.Collect$$libinit$$0000001B) for __rt_lib_init_atexit_1
    libinit.o(.ARM.Collect$$libinit$$00000000) refers (Special) to libinit2.o(.ARM.Collect$$libinit$$00000021) for __rt_lib_init_clock_1
    libinit.o(.ARM.Collect$$libinit$$00000000) refers (Special) to libinit2.o(.ARM.Collect$$libinit$$00000032) for __rt_lib_init_cpp_1
    libinit.o(.ARM.Collect$$libinit$$00000000) refers (Special) to libinit2.o(.ARM.Collect$$libinit$$00000030) for __rt_lib_init_exceptions_1
    libinit.o(.ARM.Collect$$libinit$$00000000) refers (Special) to libinit2.o(.ARM.Collect$$libinit$$00000002) for __rt_lib_init_fp_1
    libinit.o(.ARM.Collect$$libinit$$00000000) refers (Special) to libinit2.o(.ARM.Collect$$libinit$$0000001F) for __rt_lib_init_fp_trap_1
    libinit.o(.ARM.Collect$$libinit$$00000000) refers (Special) to libinit2.o(.ARM.Collect$$libinit$$00000023) for __rt_lib_init_getenv_1
    libinit.o(.ARM.Collect$$libinit$$00000000) refers (Special) to libinit2.o(.ARM.Collect$$libinit$$0000000A) for __rt_lib_init_heap_1
    libinit.o(.ARM.Collect$$libinit$$00000000) refers (Special) to libinit2.o(.ARM.Collect$$libinit$$00000011) for __rt_lib_init_lc_collate_1
    libinit.o(.ARM.Collect$$libinit$$00000000) refers (Special) to libinit2.o(.ARM.Collect$$libinit$$00000013) for __rt_lib_init_lc_ctype_1
    libinit.o(.ARM.Collect$$libinit$$00000000) refers (Special) to libinit2.o(.ARM.Collect$$libinit$$00000015) for __rt_lib_init_lc_monetary_1
    libinit.o(.ARM.Collect$$libinit$$00000000) refers (Special) to libinit2.o(.ARM.Collect$$libinit$$00000017) for __rt_lib_init_lc_numeric_1
    libinit.o(.ARM.Collect$$libinit$$00000000) refers (Special) to libinit2.o(.ARM.Collect$$libinit$$00000019) for __rt_lib_init_lc_time_1
    libinit.o(.ARM.Collect$$libinit$$00000000) refers (Special) to libinit2.o(.ARM.Collect$$libinit$$00000004) for __rt_lib_init_preinit_1
    libinit.o(.ARM.Collect$$libinit$$00000000) refers (Special) to libinit2.o(.ARM.Collect$$libinit$$0000000E) for __rt_lib_init_rand_1
    libinit.o(.ARM.Collect$$libinit$$00000000) refers (Special) to libinit2.o(.ARM.Collect$$libinit$$00000033) for __rt_lib_init_return
    libinit.o(.ARM.Collect$$libinit$$00000000) refers (Special) to libinit2.o(.ARM.Collect$$libinit$$0000001D) for __rt_lib_init_signal_1
    libinit.o(.ARM.Collect$$libinit$$00000000) refers (Special) to libinit2.o(.ARM.Collect$$libinit$$00000025) for __rt_lib_init_stdio_1
    libinit.o(.ARM.Collect$$libinit$$00000000) refers (Special) to libinit2.o(.ARM.Collect$$libinit$$0000000C) for __rt_lib_init_user_alloc_1
    libinit2.o(.ARM.Collect$$libinit$$0000000F) refers (Weak) to rt_locale_intlibspace.o(.text) for __rt_locale
    libinit2.o(.ARM.Collect$$libinit$$00000010) refers to libinit2.o(.ARM.Collect$$libinit$$0000000F) for .ARM.Collect$$libinit$$0000000F
    libinit2.o(.ARM.Collect$$libinit$$00000012) refers to libinit2.o(.ARM.Collect$$libinit$$0000000F) for .ARM.Collect$$libinit$$0000000F
    libinit2.o(.ARM.Collect$$libinit$$00000012) refers (Weak) to lc_ctype_c.o(locale$$code) for _get_lc_ctype
    libinit2.o(.ARM.Collect$$libinit$$00000014) refers to libinit2.o(.ARM.Collect$$libinit$$0000000F) for .ARM.Collect$$libinit$$0000000F
    libinit2.o(.ARM.Collect$$libinit$$00000016) refers to libinit2.o(.ARM.Collect$$libinit$$0000000F) for .ARM.Collect$$libinit$$0000000F
    libinit2.o(.ARM.Collect$$libinit$$00000016) refers (Weak) to lc_numeric_c.o(locale$$code) for _get_lc_numeric
    libinit2.o(.ARM.Collect$$libinit$$00000018) refers to libinit2.o(.ARM.Collect$$libinit$$0000000F) for .ARM.Collect$$libinit$$0000000F
    libinit2.o(.ARM.Collect$$libinit$$00000026) refers to argv_veneer.o(.emb_text) for __ARM_argv_veneer
    libinit2.o(.ARM.Collect$$libinit$$00000027) refers to argv_veneer.o(.emb_text) for __ARM_argv_veneer
    retnan.o(x$fpl$retnan) refers (Special) to usenofp.o(x$fpl$usenofp) for __I$use$fp
    retnan.o(x$fpl$retnan) refers to trapv.o(x$fpl$trapveneer) for __fpl_cmpreturn
    rtexit.o(.ARM.Collect$$rtexit$$00000000) refers (Special) to rtexit2.o(.ARM.Collect$$rtexit$$00000004) for __rt_exit_exit
    rtexit.o(.ARM.Collect$$rtexit$$00000000) refers (Special) to rtexit2.o(.ARM.Collect$$rtexit$$00000003) for __rt_exit_ls
    rtexit.o(.ARM.Collect$$rtexit$$00000000) refers (Special) to rtexit2.o(.ARM.Collect$$rtexit$$00000002) for __rt_exit_prels_1
    rtexit.o(.ARM.exidx) refers (Special) to rtexit2.o(.ARM.Collect$$rtexit$$00000004) for __rt_exit_exit
    rtexit.o(.ARM.exidx) refers (Special) to rtexit2.o(.ARM.Collect$$rtexit$$00000003) for __rt_exit_ls
    rtexit.o(.ARM.exidx) refers (Special) to rtexit2.o(.ARM.Collect$$rtexit$$00000002) for __rt_exit_prels_1
    rtexit.o(.ARM.exidx) refers to rtexit.o(.ARM.Collect$$rtexit$$00000000) for .ARM.Collect$$rtexit$$00000000
    rt_raise.o(.text) refers to __raise.o(.text) for __raise
    rt_raise.o(.text) refers to sys_exit.o(.text) for _sys_exit
    lc_ctype_c.o(locale$$data) refers (Special) to libinit2.o(.ARM.Collect$$libinit$$00000012) for __rt_lib_init_lc_ctype_2
    lc_ctype_c.o(locale$$code) refers (Special) to libinit2.o(.ARM.Collect$$libinit$$00000012) for __rt_lib_init_lc_ctype_2
    lc_ctype_c.o(locale$$code) refers to strcmpv7m.o(.text) for strcmp
    lc_ctype_c.o(locale$$code) refers to lc_ctype_c.o(locale$$data) for __lcctype_c_name
    defsig_exit.o(.text) refers to sys_exit.o(.text) for _sys_exit
    defsig_fpe_inner.o(.text) refers to defsig_general.o(.text) for __default_signal_display
    argv_veneer.o(.emb_text) refers to no_argv.o(.text) for __ARM_get_argv
    trapv.o(x$fpl$trapveneer) refers (Special) to usenofp.o(x$fpl$usenofp) for __I$use$fp
    sys_exit.o(.text) refers (Special) to use_no_semi.o(.text) for __I$use$semihosting
    sys_exit.o(.text) refers (Special) to indicate_semi.o(.text) for __semihosting_library_function
    rtexit2.o(.ARM.Collect$$rtexit$$00000003) refers to libshutdown.o(.ARM.Collect$$libshutdown$$00000000) for __rt_lib_shutdown
    rtexit2.o(.ARM.Collect$$rtexit$$00000004) refers to sys_exit.o(.text) for _sys_exit
    rtexit2.o(.ARM.exidx) refers to rtexit2.o(.ARM.Collect$$rtexit$$00000001) for .ARM.Collect$$rtexit$$00000001
    rtexit2.o(.ARM.exidx) refers to rtexit2.o(.ARM.Collect$$rtexit$$00000003) for .ARM.Collect$$rtexit$$00000003
    rtexit2.o(.ARM.exidx) refers to rtexit2.o(.ARM.Collect$$rtexit$$00000004) for .ARM.Collect$$rtexit$$00000004
    __raise.o(.text) refers to defsig.o(CL$$defsig) for __default_signal_handler
    defsig_general.o(.text) refers to sys_wrch.o(.text) for _ttywrch
    _get_argv_nomalloc.o(.text) refers (Special) to hrguard.o(.text) for __heap_region$guard
    _get_argv_nomalloc.o(.text) refers to defsig_rtmem_outer.o(.text) for __rt_SIGRTMEM
    _get_argv_nomalloc.o(.text) refers to sys_command.o(.text) for _sys_command_string
    sys_wrch.o(.text) refers (Special) to use_no_semi.o(.text) for __I$use$semihosting
    sys_wrch.o(.text) refers (Special) to indicate_semi.o(.text) for __semihosting_library_function
    sys_command.o(.text) refers (Special) to use_no_semi.o(.text) for __I$use$semihosting
    sys_command.o(.text) refers (Special) to indicate_semi.o(.text) for __semihosting_library_function
    defsig_rtmem_outer.o(.text) refers to defsig_rtmem_inner.o(.text) for __rt_SIGRTMEM_inner
    defsig_rtmem_outer.o(.text) refers to defsig_exit.o(.text) for __sig_exit
    defsig_rtmem_formal.o(.text) refers to rt_raise.o(.text) for __rt_raise
    defsig.o(CL$$defsig) refers to defsig_fpe_inner.o(.text) for __rt_SIGFPE_inner
    defsig.o(CL$$defsig) refers to defsig_rtmem_inner.o(.text) for __rt_SIGRTMEM_inner
    libshutdown.o(.ARM.Collect$$libshutdown$$00000000) refers (Special) to libshutdown2.o(.ARM.Collect$$libshutdown$$00000002) for __rt_lib_shutdown_cpp_1
    libshutdown.o(.ARM.Collect$$libshutdown$$00000000) refers (Special) to libshutdown2.o(.ARM.Collect$$libshutdown$$00000007) for __rt_lib_shutdown_fp_trap_1
    libshutdown.o(.ARM.Collect$$libshutdown$$00000000) refers (Special) to libshutdown2.o(.ARM.Collect$$libshutdown$$0000000F) for __rt_lib_shutdown_heap_1
    libshutdown.o(.ARM.Collect$$libshutdown$$00000000) refers (Special) to libshutdown2.o(.ARM.Collect$$libshutdown$$00000010) for __rt_lib_shutdown_return
    libshutdown.o(.ARM.Collect$$libshutdown$$00000000) refers (Special) to libshutdown2.o(.ARM.Collect$$libshutdown$$0000000A) for __rt_lib_shutdown_signal_1
    libshutdown.o(.ARM.Collect$$libshutdown$$00000000) refers (Special) to libshutdown2.o(.ARM.Collect$$libshutdown$$00000004) for __rt_lib_shutdown_stdio_1
    libshutdown.o(.ARM.Collect$$libshutdown$$00000000) refers (Special) to libshutdown2.o(.ARM.Collect$$libshutdown$$0000000C) for __rt_lib_shutdown_user_alloc_1
    defsig_abrt_inner.o(.text) refers to defsig_general.o(.text) for __default_signal_display
    defsig_rtred_inner.o(.text) refers to defsig_general.o(.text) for __default_signal_display
    defsig_rtmem_inner.o(.text) refers to defsig_general.o(.text) for __default_signal_display
    defsig_stak_inner.o(.text) refers to defsig_general.o(.text) for __default_signal_display
    defsig_pvfn_inner.o(.text) refers to defsig_general.o(.text) for __default_signal_display
    defsig_cppl_inner.o(.text) refers to defsig_general.o(.text) for __default_signal_display
    defsig_segv_inner.o(.text) refers to defsig_general.o(.text) for __default_signal_display
    defsig_other.o(.text) refers to defsig_general.o(.text) for __default_signal_display
    main.o(i.StopPrg) refers to msg.o(.text) for Msg
    main.o(i.StopPrg) refers to regs.o(.data) for fStopPrg
    main.o(i.StopPrg) refers to motor_x.o(.bss) for mc_X
    main.o(i.StopPrg) refers to motor_y.o(.bss) for mc_Y
    main.o(i.StopPrg) refers to motor_z.o(.bss) for mc_Z
    main.o(i.StopPrg) refers to motors.o(.bss) for fmvc
    main.o(i.StopPrg) refers to main.o(.conststring) for .conststring
    main.o(i.RecoverBlock) refers to _printf_pad.o(.text) for _printf_pre_padding
    main.o(i.RecoverBlock) refers to _printf_percent.o(.ARM.Collect$$_printf_percent$$00000000) for _printf_percent
    main.o(i.RecoverBlock) refers to _printf_f.o(.ARM.Collect$$_printf_percent$$00000003) for _printf_f
    main.o(i.RecoverBlock) refers to printf1.o(x$fpl$printf1) for _printf_fp_dec
    main.o(i.RecoverBlock) refers to _printf_d.o(.ARM.Collect$$_printf_percent$$00000009) for _printf_d
    main.o(i.RecoverBlock) refers to _printf_dec.o(.text) for _printf_int_dec
    main.o(i.RecoverBlock) refers to msg.o(.text) for Msg
    main.o(i.RecoverBlock) refers to handlers.o(.text) for InitQExBlks
    main.o(i.RecoverBlock) refers to rt_memcpy_w.o(.text) for __aeabi_memcpy4
    main.o(i.RecoverBlock) refers to rt_memclr_w.o(.text) for __aeabi_memclr4
    main.o(i.RecoverBlock) refers to f2d.o(x$fpl$f2d) for __aeabi_f2d
    main.o(i.RecoverBlock) refers to __2sprintf.o(.text) for __2sprintf
    main.o(i.RecoverBlock) refers to regs.o(.data) for pRecoverBlock
    main.o(i.RecoverBlock) refers to handlers.o(.data) for pNumReadLine
    main.o(i.RecoverBlock) refers to main.o(.bss) for .bss
    main.o(i.RecoverBlock) refers to main.o(.data) for .data
    main.o(i.RecoverBlock) refers to main.o(.conststring) for .conststring
    main.o(i.RecoverBlock) refers to motor_z.o(.bss) for ms_Z
    main.o(i.RecoverBlock) refers to motor_y.o(.bss) for ms_Y
    main.o(i.RecoverBlock) refers to motor_x.o(.bss) for ms_X
    main.o(i.RunPrgFrz) refers to regs.o(.text) for SaveRegs
    main.o(i.RunPrgFrz) refers to main.o(i.StopPrg) for StopPrg
    main.o(i.RunPrgFrz) refers to main.o(i.RecoverBlock) for RecoverBlock
    main.o(i.RunPrgFrz) refers to handlers.o(.text) for InitQExBlks
    main.o(i.RunPrgFrz) refers to regs.o(.data) for fSaveRegs
    main.o(i.RunPrgFrz) refers to motor_x.o(.bss) for mc_X
    main.o(i.RunPrgFrz) refers to motor_y.o(.bss) for mc_Y
    main.o(i.RunPrgFrz) refers to motor_z.o(.bss) for mc_Z
    main.o(i.RunPrgFrz) refers to handlers.o(.data) for pCurCadr
    main.o(i.RunPrgFrz) refers to ti.o(.bss) for ti
    main.o(i.RunPrgFrz) refers to motors.o(.bss) for fmvc
    main.o(i.BtnsMotorYHandler) refers to virtualpins.o(.text) for QGetPin
    main.o(i.BtnsMotorYHandler) refers to main.o(.data__ZZ17BtnsMotorYHandlerE2fB) for BtnsMotorYHandler::fB
    main.o(i.BtnsMotorYHandler) refers to keypad.o(.data) for pYmove
    main.o(i.BtnsMotorYHandler) refers to main.o(.data__ZZ17BtnsMotorYHandlerE2fD) for BtnsMotorYHandler::fD
    main.o(i.BtnsMotorYHandler) refers to keypad.o(.data) for pDCTime
    main.o(i.BtnsMotorYHandler) refers to ti.o(.bss) for time
    main.o(i.BtnsMotorZHandler) refers to virtualpins.o(.text) for QGetPin
    main.o(i.BtnsMotorZHandler) refers to main.o(.data__ZZ17BtnsMotorZHandlerE2fB) for BtnsMotorZHandler::fB
    main.o(i.BtnsMotorZHandler) refers to keypad.o(.data) for pZmove
    main.o(i.BtnsMotorZHandler) refers to main.o(.data__ZZ17BtnsMotorZHandlerE2fD) for BtnsMotorZHandler::fD
    main.o(i.BtnsMotorZHandler) refers to keypad.o(.data) for pDCTime
    main.o(i.BtnsMotorZHandler) refers to ti.o(.bss) for time
    main.o(i.BtnsMotorXHandler) refers to virtualpins.o(.text) for QGetPin
    main.o(i.BtnsMotorXHandler) refers to main.o(.data__ZZ17BtnsMotorXHandlerE2fB) for BtnsMotorXHandler::fB
    main.o(i.BtnsMotorXHandler) refers to keypad.o(.data) for pXmove
    main.o(i.BtnsMotorXHandler) refers to main.o(.data__ZZ17BtnsMotorXHandlerE2fD) for BtnsMotorXHandler::fD
    main.o(i.BtnsMotorXHandler) refers to keypad.o(.data) for pDCTime
    main.o(i.BtnsMotorXHandler) refers to ti.o(.bss) for time
    main.o(i.MoveByRegs) refers to dflt_clz.o(x$fpl$dflt) for __aeabi_i2d
    main.o(i.MoveByRegs) refers to dfltll_clz.o(x$fpl$dfltull) for __aeabi_ul2d
    main.o(i.MoveByRegs) refers to dmul.o(x$fpl$dmul) for __aeabi_dmul
    main.o(i.MoveByRegs) refers to ddiv.o(x$fpl$ddiv) for __aeabi_ddiv
    main.o(i.MoveByRegs) refers to dfixull.o(x$fpl$llufromd) for __aeabi_d2ulz
    main.o(i.MoveByRegs) refers to keypad.o(.data) for pXmove
    main.o(i.MoveByRegs) refers to motor_x.o(.bss) for mc_X
    main.o(i.MoveByRegs) refers to keypad.o(.data) for pYmove
    main.o(i.MoveByRegs) refers to motor_y.o(.bss) for mc_Y
    main.o(i.MoveByRegs) refers to keypad.o(.data) for pZmove
    main.o(i.MoveByRegs) refers to motor_z.o(.bss) for mc_Z
    main.o(i.FormQueue) refers to queue.o(.text) for quPackCount
    main.o(i.FormQueue) refers to keypad.o(.text) for KPQuery
    main.o(i.FormQueue) refers to keypad.o(.data) for pUsesKP485
    main.o(i.FormQueue) refers to handlers.o(.data) for pPrgRun
    main.o(i.FormQueue) refers to ti.o(.bss) for ti
    main.o(i.FormQueue) refers to regs.o(.data) for pIntKPCtrl
    main.o(i.ZZCheckPointFrz) refers to virtualpins.o(.text) for QGetPin
    main.o(i.ZZCheckPointFrz) refers to main.o(i.ZZeroDat) for ZZeroDat
    main.o(i.ZZCheckPointFrz) refers to motors.o(.text) for UpZ
    main.o(i.ZZCheckPointFrz) refers to msg.o(.text) for Msg
    main.o(i.ZZCheckPointFrz) refers to regs.o(.data) for pZZeroDat
    main.o(i.ZZCheckPointFrz) refers to main.o(.data__ZZ15ZZCheckPointFrzE2f5) for ZZCheckPointFrz::f5
    main.o(i.ZZCheckPointFrz) refers to motor_z.o(.bss) for mc_Z
    main.o(i.ZZCheckPointFrz) refers to main.o(.data__ZZ15ZZCheckPointFrzE2f6) for ZZCheckPointFrz::f6
    main.o(i.ZZCheckPointFrz) refers to main.o(.conststring) for .conststring
    main.o(i.CheckPointFrz) refers to virtualpins.o(.text) for QGetPin
    main.o(i.CheckPointFrz) refers to motors.o(.text) for AddPointFrz
    main.o(i.CheckPointFrz) refers to msg.o(.text) for Msg
    main.o(i.CheckPointFrz) refers to regs.o(.data) for pByPass
    main.o(i.CheckPointFrz) refers to main.o(.data__ZZ13CheckPointFrzE2f3) for CheckPointFrz::f3
    main.o(i.CheckPointFrz) refers to motor_z.o(.bss) for mc_Z
    main.o(i.CheckPointFrz) refers to main.o(.data__ZZ13CheckPointFrzE2f4) for CheckPointFrz::f4
    main.o(i.CheckPointFrz) refers to main.o(.conststring) for .conststring
    main.o(i.HTCheckPointFrz) refers to virtualpins.o(.text) for QGetPin
    main.o(i.HTCheckPointFrz) refers to motors.o(.text) for HTCorr
    main.o(i.HTCheckPointFrz) refers to msg.o(.text) for Msg
    main.o(i.HTCheckPointFrz) refers to regs.o(.data) for pHTCorr
    main.o(i.HTCheckPointFrz) refers to main.o(.data__ZZ15HTCheckPointFrzE2f5) for HTCheckPointFrz::f5
    main.o(i.HTCheckPointFrz) refers to motor_z.o(.bss) for mc_Z
    main.o(i.HTCheckPointFrz) refers to main.o(.data__ZZ15HTCheckPointFrzE2f6) for HTCheckPointFrz::f6
    main.o(i.HTCheckPointFrz) refers to main.o(.conststring) for .conststring
    main.o(i.ButtonsToRegs) refers to virtualpins.o(.text) for QGetPin
    main.o(i.ButtonsToRegs) refers to main.o(i.BtnsMotorZHandler) for BtnsMotorZHandler
    main.o(i.ButtonsToRegs) refers to main.o(i.BtnsMotorXHandler) for BtnsMotorXHandler
    main.o(i.ButtonsToRegs) refers to main.o(i.BtnsMotorYHandler) for BtnsMotorYHandler
    main.o(i.ButtonsToRegs) refers to keypad.o(.data) for pUsesKP485
    main.o(i.ButtonsToRegs) refers to keypad.o(.data) for pBtn5
    main.o(i.ButtonsToRegs) refers to main.o(.data__ZZ11Btn5HandlerE1f) for Btn5Handler::f
    main.o(i.ButtonsToRegs) refers to keypad.o(.data) for pAxisSwitch
    main.o(i.ButtonsToRegs) refers to main.o(.data__ZZ20BtnAxisSwitchHandlerE1f) for BtnAxisSwitchHandler::f
    main.o(i.ButtonsToRegs) refers to keypad.o(.data) for pXmove
    main.o(i.ButtonsToRegs) refers to keypad.o(.data) for pYmove
    main.o(i.ButtonsToRegs) refers to keypad.o(.data) for pZmove
    main.o(i.InitFrzTimers) refers to timers.o(.text) for Init_TCS
    main.o(i.InitFrzTimers) refers to motor_x.o(.text) for MotorX_Handler
    main.o(i.InitFrzTimers) refers to motor_x.o(.bss) for tcs_MotorX
    main.o(i.InitFrzTimers) refers to motor_y.o(.text) for MotorY_Handler
    main.o(i.InitFrzTimers) refers to motor_y.o(.bss) for tcs_MotorY
    main.o(i.InitFrzTimers) refers to motor_z.o(.text) for MotorZ_Handler
    main.o(i.InitFrzTimers) refers to motor_z.o(.bss) for tcs_MotorZ
    main.o(i.InitFrzTimers) refers to motors.o(.text) for FMove_HandlerQuick
    main.o(i.InitFrzTimers) refers to motors.o(.bss) for tcs_FMove
    main.o(i.ZZeroDat) refers to fflt_clz.o(x$fpl$ffltu) for __aeabi_ui2f
    main.o(i.ZZeroDat) refers to fmul.o(x$fpl$fmul) for __aeabi_fmul
    main.o(i.ZZeroDat) refers to fdiv.o(x$fpl$fdiv) for __aeabi_fdiv
    main.o(i.ZZeroDat) refers to fflt_clz.o(x$fpl$fflt) for __aeabi_i2f
    main.o(i.ZZeroDat) refers to faddsub_clz.o(x$fpl$fsub) for __aeabi_fsub
    main.o(i.ZZeroDat) refers to ffix.o(x$fpl$ffix) for __aeabi_f2iz
    main.o(i.ZZeroDat) refers to msg.o(.text) for Msg
    main.o(i.ZZeroDat) refers to regs.o(.text) for SaveRegs
    main.o(i.ZZeroDat) refers to regs.o(.data) for pZ_SPR
    main.o(i.ZZeroDat) refers to motors.o(.data) for pHdat
    main.o(i.ZZeroDat) refers to motor_z.o(.bss) for ms_Z
    main.o(i.ZZeroDat) refers to main.o(.conststring) for .conststring
    motor_x.o(i.PositX) refers to virtualpins.o(.text) for QGetPin
    motor_x.o(i.PositX) refers to lludivv7m.o(.text) for __aeabi_uldivmod
    motor_x.o(i.PositX) refers to msg.o(.text) for Msg
    motor_x.o(i.PositX) refers to motor_z.o(.bss) for ms_Z
    motor_x.o(i.PositX) refers to motor_x.o(.bss) for .bss
    motor_x.o(i.PositX) refers to motor_x.o(.conststring) for .conststring
    motor_x.o(i.PositX) refers to regs.o(.data) for vX_MAX_POS
    motor_x.o(i.PositX) refers to motor_y.o(.bss) for ms_Y
    motor_x.o(i.MovePosX) refers to lludivv7m.o(.text) for __aeabi_uldivmod
    motor_x.o(i.MovePosX) refers to virtualpins.o(.text) for QClrPin
    motor_x.o(i.MovePosX) refers to motor_x.o(.bss) for .bss
    motor_x.o(i.MovePosX) refers to motor_y.o(.bss) for mc_Y
    motor_x.o(i.MovePosX) refers to regs.o(.data) for pCorrStop
    motor_x.o(i.MovePosX) refers to motor_z.o(.bss) for mc_Z
    motor_x.o(i.MovePosX) refers to msg.o(.text) for Msg
    motor_x.o(i.MovePosX) refers to freqinvr.o(.text) for FIStop
    motor_x.o(i.MovePosX) refers to motor_x.o(.conststring) for .conststring
    motor_x.o(i.MoveBtnX) refers to lludivv7m.o(.text) for __aeabi_uldivmod
    motor_x.o(i.MoveBtnX) refers to virtualpins.o(.text) for QClrPin
    motor_x.o(i.MoveBtnX) refers to motor_x.o(.bss) for .bss
    motor_x.o(i.MoveBtnX) refers to regs.o(.data) for vX_MIN_POS
    motor_y.o(i.PositY) refers to virtualpins.o(.text) for QGetPin
    motor_y.o(i.PositY) refers to lludivv7m.o(.text) for __aeabi_uldivmod
    motor_y.o(i.PositY) refers to msg.o(.text) for Msg
    motor_y.o(i.PositY) refers to motor_z.o(.bss) for ms_Z
    motor_y.o(i.PositY) refers to motor_y.o(.bss) for .bss
    motor_y.o(i.PositY) refers to motor_y.o(.conststring) for .conststring
    motor_y.o(i.PositY) refers to regs.o(.data) for vY_MIN_POS
    motor_y.o(i.PositY) refers to motor_x.o(.bss) for ms_X
    motor_y.o(i.MovePosY) refers to virtualpins.o(.text) for QClrPin
    motor_y.o(i.MovePosY) refers to lludivv7m.o(.text) for __aeabi_uldivmod
    motor_y.o(i.MovePosY) refers to freqinvr.o(.text) for FIStop
    motor_y.o(i.MovePosY) refers to motor_y.o(.bss) for .bss
    motor_y.o(i.MovePosY) refers to motor_x.o(.bss) for mc_X
    motor_y.o(i.MovePosY) refers to regs.o(.data) for pCorrStop
    motor_y.o(i.MovePosY) refers to motor_z.o(.bss) for mc_Z
    motor_y.o(i.MoveBtnY) refers to lludivv7m.o(.text) for __aeabi_uldivmod
    motor_y.o(i.MoveBtnY) refers to virtualpins.o(.text) for QClrPin
    motor_y.o(i.MoveBtnY) refers to motor_y.o(.bss) for .bss
    motor_y.o(i.MoveBtnY) refers to regs.o(.data) for vY_MIN_POS
    motor_z.o(i.PositZ) refers to virtualpins.o(.text) for QGetPin
    motor_z.o(i.PositZ) refers to lludivv7m.o(.text) for __aeabi_uldivmod
    motor_z.o(i.PositZ) refers to msg.o(.text) for Msg
    motor_z.o(i.PositZ) refers to motor_z.o(.bss) for .bss
    motor_z.o(i.PositZ) refers to motor_z.o(.conststring) for .conststring
    motor_z.o(i.PositZ) refers to regs.o(.data) for vZ_MAX_POS
    motor_z.o(i.PositZ) refers to motor_x.o(.bss) for ms_X
    motor_z.o(i.PositZ) refers to motor_y.o(.bss) for ms_Y
    motor_z.o(i.MovePosZ) refers to lludivv7m.o(.text) for __aeabi_uldivmod
    motor_z.o(i.MovePosZ) refers to virtualpins.o(.text) for QClrPin
    motor_z.o(i.MovePosZ) refers to msg.o(.text) for Msg
    motor_z.o(i.MovePosZ) refers to freqinvr.o(.text) for FIStop
    motor_z.o(i.MovePosZ) refers to motor_z.o(.bss) for .bss
    motor_z.o(i.MovePosZ) refers to motor_x.o(.bss) for mc_X
    motor_z.o(i.MovePosZ) refers to motor_y.o(.bss) for mc_Y
    motor_z.o(i.MovePosZ) refers to regs.o(.data) for pCorrStop
    motor_z.o(i.MovePosZ) refers to motor_z.o(.conststring) for .conststring
    motor_z.o(i.MoveBtnZ) refers to lludivv7m.o(.text) for __aeabi_uldivmod
    motor_z.o(i.MoveBtnZ) refers to virtualpins.o(.text) for QClrPin
    motor_z.o(i.MoveBtnZ) refers to motor_z.o(.bss) for .bss
    motor_z.o(i.MoveBtnZ) refers to regs.o(.data) for vZ_MIN_POS


==============================================================================

Removing Unused input sections from the image.

    Removing system_lpc17xx.o(.rev16_text), (4 bytes).
    Removing system_lpc17xx.o(.revsh_text), (4 bytes).
    Removing lpc17xx_clkpwr.o(.rev16_text), (4 bytes).
    Removing lpc17xx_clkpwr.o(.revsh_text), (4 bytes).
    Removing lpc17xx_pinsel.o(.rev16_text), (4 bytes).
    Removing lpc17xx_pinsel.o(.revsh_text), (4 bytes).
    Removing lpc17xx_uart.o(.rev16_text), (4 bytes).
    Removing lpc17xx_uart.o(.revsh_text), (4 bytes).
    Removing lpc17xx_timer.o(.rev16_text), (4 bytes).
    Removing lpc17xx_timer.o(.revsh_text), (4 bytes).
    Removing sbl_iap.o(.rev16_text), (4 bytes).
    Removing sbl_iap.o(.revsh_text), (4 bytes).
    Removing sbl_iap.o(.text), (392 bytes).
    Removing sbl_iap.o(.bss), (296 bytes).
    Removing sbl_iap.o(.constdata), (240 bytes).
    Removing sbl_iap.o(.data), (8 bytes).
    Removing modbus.o(.rev16_text), (4 bytes).
    Removing modbus.o(.revsh_text), (4 bytes).
    Removing fs.o(.rev16_text), (4 bytes).
    Removing fs.o(.revsh_text), (4 bytes).
    Removing msg.o(.rev16_text), (4 bytes).
    Removing msg.o(.revsh_text), (4 bytes).
    Removing ti.o(.bss), (28 bytes).
    Removing ti.o(.data), (4 bytes).
    Removing ti.o(.data), (4 bytes).
    Removing ti.o(.data), (4 bytes).
    Removing timers.o(.rev16_text), (4 bytes).
    Removing timers.o(.revsh_text), (4 bytes).
    Removing uart.o(.rev16_text), (4 bytes).
    Removing uart.o(.revsh_text), (4 bytes).
    Removing flash.o(.rev16_text), (4 bytes).
    Removing flash.o(.revsh_text), (4 bytes).
    Removing flash.o(.bss), (256 bytes).
    Removing staticpins.o(.rev16_text), (4 bytes).
    Removing staticpins.o(.revsh_text), (4 bytes).
    Removing virtualpins.o(.rev16_text), (4 bytes).
    Removing virtualpins.o(.revsh_text), (4 bytes).
    Removing queue.o(.rev16_text), (4 bytes).
    Removing queue.o(.revsh_text), (4 bytes).
    Removing u0packets.o(.rev16_text), (4 bytes).
    Removing u0packets.o(.revsh_text), (4 bytes).
    Removing u0packets.o(.bss), (255 bytes).
    Removing u1packets.o(.rev16_text), (4 bytes).
    Removing u1packets.o(.revsh_text), (4 bytes).
    Removing main.o(.rev16_text), (4 bytes).
    Removing main.o(.revsh_text), (4 bytes).
    Removing main.o(.data), (4 bytes).
    Removing handlers.o(.rev16_text), (4 bytes).
    Removing handlers.o(.revsh_text), (4 bytes).
    Removing handlers.o(.data), (1 bytes).
    Removing handlers.o(.data), (4 bytes).
    Removing handlers.o(.data), (4 bytes).
    Removing motors.o(.rev16_text), (4 bytes).
    Removing motors.o(.revsh_text), (4 bytes).
    Removing motors.o(.data), (4 bytes).
    Removing motors.o(.data), (4 bytes).
    Removing freqinvr.o(.rev16_text), (4 bytes).
    Removing freqinvr.o(.revsh_text), (4 bytes).
    Removing regs.o(.rev16_text), (4 bytes).
    Removing regs.o(.revsh_text), (4 bytes).
    Removing motor_x.o(.rev16_text), (4 bytes).
    Removing motor_x.o(.revsh_text), (4 bytes).
    Removing motor_y.o(.rev16_text), (4 bytes).
    Removing motor_y.o(.revsh_text), (4 bytes).
    Removing motor_z.o(.rev16_text), (4 bytes).
    Removing motor_z.o(.revsh_text), (4 bytes).
    Removing pwm.o(.rev16_text), (4 bytes).
    Removing pwm.o(.revsh_text), (4 bytes).

68 unused section(s) (total 1716 bytes) removed from the image.

==============================================================================

Image Stack Usage Information.

Maximum stack usage for Image.

Maximum Stack Usage for mbFrzPackHandler0 0x1b4 bytes.
Call chain for maximum stack usage:
mbFrzPackHandler0 => pFS_BReadLn => bFS_BReadLn => bFS_ReadLn => FS_RSeek => FS_GetNextCluster => FLASH_Read => FLASH_BankRead => FLASH_ReceiveByte => SSP0_SendByte

Maximum stack usage per global function.

Maximum Stack Usage for SystemInit 0xc bytes.
Call chain for maximum stack usage:
SystemInit

Maximum Stack Usage for CLKPWR_SetPCLKDiv 0x8 bytes.
Call chain for maximum stack usage:
CLKPWR_SetPCLKDiv

Maximum Stack Usage for CLKPWR_GetPCLK 0x4 bytes.
Call chain for maximum stack usage:
CLKPWR_GetPCLK

Maximum Stack Usage for PINSEL_ConfigPin 0x14 bytes.
Call chain for maximum stack usage:
PINSEL_ConfigPin

Maximum Stack Usage for UART_Init 0x88 bytes.
Call chain for maximum stack usage:
UART_Init => uart_set_divisors => __aeabi_uldivmod

Maximum Stack Usage for UART_Receive 0x14 bytes.
Call chain for maximum stack usage:
UART_Receive

Maximum Stack Usage for UART_IntConfig 0x8 bytes.
Call chain for maximum stack usage:
UART_IntConfig

Maximum Stack Usage for TIM_Init 0x58 bytes.
Call chain for maximum stack usage:
TIM_Init => __aeabi_uldivmod

Maximum Stack Usage for TIM_ConfigMatch 0xc bytes.
Call chain for maximum stack usage:
TIM_ConfigMatch

Maximum Stack Usage for mbSetSpeed 0x30 bytes.
Call chain for maximum stack usage:
mbSetSpeed => __aeabi_d2uiz

Maximum Stack Usage for CRC16 0xc bytes.
Call chain for maximum stack usage:
CRC16

Maximum Stack Usage for mbCheckSum 0x14 bytes.
Call chain for maximum stack usage:
mbCheckSum => CRC16

Maximum Stack Usage for mbRecvBuffer 0x18 bytes.
Call chain for maximum stack usage:
mbRecvBuffer

Maximum Stack Usage for mbIdle 0x128 bytes.
Call chain for maximum stack usage:
mbIdle => Dump => Msg => __c89vsprintf

Maximum Stack Usage for mbWordToPack 0x8 bytes.
Call chain for maximum stack usage:
mbWordToPack

Maximum Stack Usage for mbWordToPackNoSwap 0x8 bytes.
Call chain for maximum stack usage:
mbWordToPackNoSwap

Maximum Stack Usage for mbBufferToPack 0x10 bytes.
Call chain for maximum stack usage:
mbBufferToPack

Maximum Stack Usage for mbPackToQueue 0x138 bytes.
Call chain for maximum stack usage:
mbPackToQueue => quAddPack => Dump => Msg => __c89vsprintf

Maximum Stack Usage for mbCmd485 0x148 bytes.
Call chain for maximum stack usage:
mbCmd485 => mbPackToQueue => quAddPack => Dump => Msg => __c89vsprintf

Maximum Stack Usage for mbInsPackToQueue 0x150 bytes.
Call chain for maximum stack usage:
mbInsPackToQueue => quInsPack => quAddPack => Dump => Msg => __c89vsprintf

Maximum Stack Usage for mbInsCmd485 0x168 bytes.
Call chain for maximum stack usage:
mbInsCmd485 => mbInsPackToQueue => quInsPack => quAddPack => Dump => Msg => __c89vsprintf

Maximum Stack Usage for mbSendPack 0x38 bytes.
Call chain for maximum stack usage:
mbSendPack => UART1_SendBuffer => UART1_IntTransmit

Maximum Stack Usage for FS_Init 0x28 bytes.
Call chain for maximum stack usage:
FS_Init => FLASH_WriteByte => FLASH_WaitWriting => FLASH_ReceiveByte => SSP0_SendByte

Maximum Stack Usage for FS_StrSymbolsValid 0x10 bytes.
Call chain for maximum stack usage:
FS_StrSymbolsValid => strlen

Maximum Stack Usage for FS_GetNameAndType 0x20 bytes.
Call chain for maximum stack usage:
FS_GetNameAndType => FS_StrSymbolsValid => strlen

Maximum Stack Usage for FS_GetFullName 0x20 bytes.
Call chain for maximum stack usage:
FS_GetFullName => CRC8

Maximum Stack Usage for FS_FileUseFCS 0x18 bytes.
Call chain for maximum stack usage:
FS_FileUseFCS

Maximum Stack Usage for FS_FindFreeFNT 0x24 bytes.
Call chain for maximum stack usage:
FS_FindFreeFNT => FLASH_ReadByte => FLASH_ReceiveByte => SSP0_SendByte

Maximum Stack Usage for FS_FindFileByName 0x2c bytes.
Call chain for maximum stack usage:
FS_FindFileByName => FLASH_ReadByte => FLASH_ReceiveByte => SSP0_SendByte

Maximum Stack Usage for FS_FindFreeCluster 0x1c bytes.
Call chain for maximum stack usage:
FS_FindFreeCluster => FLASH_ReadByte => FLASH_ReceiveByte => SSP0_SendByte

Maximum Stack Usage for FS_FNTWriteFullName 0x30 bytes.
Call chain for maximum stack usage:
FS_FNTWriteFullName => FLASH_Write => FLASH_PageWrite => FLASH_WaitWriting => FLASH_ReceiveByte => SSP0_SendByte

Maximum Stack Usage for FS_FNTSetSignature1 0x18 bytes.
Call chain for maximum stack usage:
FS_FNTSetSignature1 => FLASH_WriteByte => FLASH_WaitWriting => FLASH_ReceiveByte => SSP0_SendByte

Maximum Stack Usage for FS_ClusterSetFlag 0x18 bytes.
Call chain for maximum stack usage:
FS_ClusterSetFlag => FLASH_WriteByte => FLASH_WaitWriting => FLASH_ReceiveByte => SSP0_SendByte

Maximum Stack Usage for FS_SetNextCluster 0x40 bytes.
Call chain for maximum stack usage:
FS_SetNextCluster => FLASH_Write => FLASH_PageWrite => FLASH_WaitWriting => FLASH_ReceiveByte => SSP0_SendByte

Maximum Stack Usage for FS_GetNextCluster 0x34 bytes.
Call chain for maximum stack usage:
FS_GetNextCluster => FLASH_Read => FLASH_BankRead => FLASH_ReceiveByte => SSP0_SendByte

Maximum Stack Usage for FS_FlushPageBuffer 0x38 bytes.
Call chain for maximum stack usage:
FS_FlushPageBuffer => FLASH_Write => FLASH_PageWrite => FLASH_WaitWriting => FLASH_ReceiveByte => SSP0_SendByte

Maximum Stack Usage for FS_Assign 0x48 bytes.
Call chain for maximum stack usage:
FS_Assign => FS_GetNameAndType => FS_StrSymbolsValid => strlen

Maximum Stack Usage for FS_Rewrite 0x48 bytes.
Call chain for maximum stack usage:
FS_Rewrite => FS_FNTWriteFullName => FLASH_Write => FLASH_PageWrite => FLASH_WaitWriting => FLASH_ReceiveByte => SSP0_SendByte

Maximum Stack Usage for FS_Append 0x5c bytes.
Call chain for maximum stack usage:
FS_Append => FS_GetNextCluster => FLASH_Read => FLASH_BankRead => FLASH_ReceiveByte => SSP0_SendByte

Maximum Stack Usage for FS_Reset 0x44 bytes.
Call chain for maximum stack usage:
FS_Reset => FLASH_Read => FLASH_BankRead => FLASH_ReceiveByte => SSP0_SendByte

Maximum Stack Usage for FS_WriteByte 0x58 bytes.
Call chain for maximum stack usage:
FS_WriteByte => FS_SetNextCluster => FLASH_Write => FLASH_PageWrite => FLASH_WaitWriting => FLASH_ReceiveByte => SSP0_SendByte

Maximum Stack Usage for FS_ReadByte 0x54 bytes.
Call chain for maximum stack usage:
FS_ReadByte => FS_GetNextCluster => FLASH_Read => FLASH_BankRead => FLASH_ReceiveByte => SSP0_SendByte

Maximum Stack Usage for FS_Seek 0x54 bytes.
Call chain for maximum stack usage:
FS_Seek => FS_GetNextCluster => FLASH_Read => FLASH_BankRead => FLASH_ReceiveByte => SSP0_SendByte

Maximum Stack Usage for FS_RSeek 0x5c bytes.
Call chain for maximum stack usage:
FS_RSeek => FS_GetNextCluster => FLASH_Read => FLASH_BankRead => FLASH_ReceiveByte => SSP0_SendByte

Maximum Stack Usage for FS_Close 0x50 bytes.
Call chain for maximum stack usage:
FS_Close => FS_FlushPageBuffer => FLASH_Write => FLASH_PageWrite => FLASH_WaitWriting => FLASH_ReceiveByte => SSP0_SendByte

Maximum Stack Usage for FS_Delete 0x6c bytes.
Call chain for maximum stack usage:
FS_Delete => FS_GetNextCluster => FLASH_Read => FLASH_BankRead => FLASH_ReceiveByte => SSP0_SendByte

Maximum Stack Usage for FS_GetFileInfo 0x74 bytes.
Call chain for maximum stack usage:
FS_GetFileInfo => FLASH_Read => FLASH_BankRead => FLASH_ReceiveByte => SSP0_SendByte

Maximum Stack Usage for Msg 0x98 bytes.
Call chain for maximum stack usage:
Msg => __c89vsprintf

Maximum Stack Usage for Dump 0x118 bytes.
Call chain for maximum stack usage:
Dump => Msg => __c89vsprintf

Maximum Stack Usage for SMsg 0x40 bytes.
Call chain for maximum stack usage:
SMsg => mbSendPack => UART1_SendBuffer => UART1_IntTransmit

Maximum Stack Usage for bFS_Read 0x6c bytes.
Call chain for maximum stack usage:
bFS_Read => FS_ReadByte => FS_GetNextCluster => FLASH_Read => FLASH_BankRead => FLASH_ReceiveByte => SSP0_SendByte

Maximum Stack Usage for bFS_ReadLn 0x7c bytes.
Call chain for maximum stack usage:
bFS_ReadLn => FS_RSeek => FS_GetNextCluster => FLASH_Read => FLASH_BankRead => FLASH_ReceiveByte => SSP0_SendByte

Maximum Stack Usage for FS_ReadPrevByte 0x74 bytes.
Call chain for maximum stack usage:
FS_ReadPrevByte => FS_RSeek => FS_GetNextCluster => FLASH_Read => FLASH_BankRead => FLASH_ReceiveByte => SSP0_SendByte

Maximum Stack Usage for bFS_BReadLn 0x9c bytes.
Call chain for maximum stack usage:
bFS_BReadLn => bFS_ReadLn => FS_RSeek => FS_GetNextCluster => FLASH_Read => FLASH_BankRead => FLASH_ReceiveByte => SSP0_SendByte

Maximum Stack Usage for bFS_Write 0x70 bytes.
Call chain for maximum stack usage:
bFS_Write => FS_WriteByte => FS_SetNextCluster => FLASH_Write => FLASH_PageWrite => FLASH_WaitWriting => FLASH_ReceiveByte => SSP0_SendByte

Maximum Stack Usage for InitStream 0x54 bytes.
Call chain for maximum stack usage:
InitStream => FS_Seek => FS_GetNextCluster => FLASH_Read => FLASH_BankRead => FLASH_ReceiveByte => SSP0_SendByte

Maximum Stack Usage for bsFS_ReadLn 0x8c bytes.
Call chain for maximum stack usage:
bsFS_ReadLn => bFS_ReadLn => FS_RSeek => FS_GetNextCluster => FLASH_Read => FLASH_BankRead => FLASH_ReceiveByte => SSP0_SendByte

Maximum Stack Usage for bsFS_Seek 0x64 bytes.
Call chain for maximum stack usage:
bsFS_Seek => FS_Seek => FS_GetNextCluster => FLASH_Read => FLASH_BankRead => FLASH_ReceiveByte => SSP0_SendByte

Maximum Stack Usage for Init_TCS 0x8 bytes.
Call chain for maximum stack usage:
Init_TCS

Maximum Stack Usage for InitTimer 0x88 bytes.
Call chain for maximum stack usage:
InitTimer => TIM_Init => __aeabi_uldivmod

Maximum Stack Usage for InitTimer1 0x88 bytes.
Call chain for maximum stack usage:
InitTimer1 => TIM_Init => __aeabi_uldivmod

Maximum Stack Usage for TIMER0_IRQHandler 0x10 bytes.
Call chain for maximum stack usage:
TIMER0_IRQHandler

Maximum Stack Usage for TIMER2_IRQHandler 0x10 bytes.
Call chain for maximum stack usage:
TIMER2_IRQHandler

Maximum Stack Usage for TIMER3_IRQHandler 0x10 bytes.
Call chain for maximum stack usage:
TIMER3_IRQHandler

Maximum Stack Usage for UART0_IntTransmit 0x10 bytes.
Call chain for maximum stack usage:
UART0_IntTransmit

Maximum Stack Usage for UART0_IntReceive 0x2c bytes.
Call chain for maximum stack usage:
UART0_IntReceive => UART_Receive

Maximum Stack Usage for UART0_IRQHandler 0x34 bytes.
Call chain for maximum stack usage:
UART0_IRQHandler => UART0_IntReceive => UART_Receive

Maximum Stack Usage for UART1_IntTransmit 0x10 bytes.
Call chain for maximum stack usage:
UART1_IntTransmit

Maximum Stack Usage for UART1_IntReceive 0x2c bytes.
Call chain for maximum stack usage:
UART1_IntReceive => UART_Receive

Maximum Stack Usage for UART1_IRQHandler 0x34 bytes.
Call chain for maximum stack usage:
UART1_IRQHandler => UART1_IntReceive => UART_Receive

Maximum Stack Usage for UARTx_Init 0xc0 bytes.
Call chain for maximum stack usage:
UARTx_Init => UART_Init => uart_set_divisors => __aeabi_uldivmod

Maximum Stack Usage for UART0_SendBuffer 0x28 bytes.
Call chain for maximum stack usage:
UART0_SendBuffer => UART0_IntTransmit

Maximum Stack Usage for UART1_SendBuffer 0x28 bytes.
Call chain for maximum stack usage:
UART1_SendBuffer => UART1_IntTransmit

Maximum Stack Usage for UART0_RecvBuffer 0x14 bytes.
Call chain for maximum stack usage:
UART0_RecvBuffer

Maximum Stack Usage for UART1_RecvBuffer 0x14 bytes.
Call chain for maximum stack usage:
UART1_RecvBuffer

Maximum Stack Usage for CRC8 0x8 bytes.
Call chain for maximum stack usage:
CRC8

Maximum Stack Usage for sqr 0x10 bytes.
Call chain for maximum stack usage:
sqr => __aeabi_fmul

Maximum Stack Usage for SSP0_SendByte 0x4 bytes.
Call chain for maximum stack usage:
SSP0_SendByte

Maximum Stack Usage for FLASH_ReceiveByte 0x4 bytes.
Call chain for maximum stack usage:
FLASH_ReceiveByte => SSP0_SendByte

Maximum Stack Usage for FLASH_GetBankCapacity 0xc bytes.
Call chain for maximum stack usage:
FLASH_GetBankCapacity => FLASH_ReceiveByte => SSP0_SendByte

Maximum Stack Usage for FLASH_Init 0x14 bytes.
Call chain for maximum stack usage:
FLASH_Init => FLASH_GetBankCapacity => FLASH_ReceiveByte => SSP0_SendByte

Maximum Stack Usage for FLASH_WaitWriting 0xc bytes.
Call chain for maximum stack usage:
FLASH_WaitWriting => FLASH_ReceiveByte => SSP0_SendByte

Maximum Stack Usage for FLASH_WaitBulkErasing 0xc bytes.
Call chain for maximum stack usage:
FLASH_WaitBulkErasing => FLASH_ReceiveByte => SSP0_SendByte

Maximum Stack Usage for FLASH_BulkErase 0xb8 bytes.
Call chain for maximum stack usage:
FLASH_BulkErase => Msg => __c89vsprintf

Maximum Stack Usage for FLASH_WriteByte 0x18 bytes.
Call chain for maximum stack usage:
FLASH_WriteByte => FLASH_WaitWriting => FLASH_ReceiveByte => SSP0_SendByte

Maximum Stack Usage for FLASH_ReadByte 0xc bytes.
Call chain for maximum stack usage:
FLASH_ReadByte => FLASH_ReceiveByte => SSP0_SendByte

Maximum Stack Usage for FLASH_PageWrite 0x1c bytes.
Call chain for maximum stack usage:
FLASH_PageWrite => FLASH_WaitWriting => FLASH_ReceiveByte => SSP0_SendByte

Maximum Stack Usage for FLASH_Write 0x30 bytes.
Call chain for maximum stack usage:
FLASH_Write => FLASH_PageWrite => FLASH_WaitWriting => FLASH_ReceiveByte => SSP0_SendByte

Maximum Stack Usage for FLASH_BankRead 0x14 bytes.
Call chain for maximum stack usage:
FLASH_BankRead => FLASH_ReceiveByte => SSP0_SendByte

Maximum Stack Usage for FLASH_Read 0x2c bytes.
Call chain for maximum stack usage:
FLASH_Read => FLASH_BankRead => FLASH_ReceiveByte => SSP0_SendByte

Maximum Stack Usage for FLASH_GetBankID 0xc bytes.
Call chain for maximum stack usage:
FLASH_GetBankID => FLASH_ReceiveByte => SSP0_SendByte

Maximum Stack Usage for CallErrorHandler 0x10 bytes.
Call chain for maximum stack usage:
CallErrorHandler

Maximum Stack Usage for ClrPin 0x20 bytes.
Call chain for maximum stack usage:
ClrPin => CallErrorHandler

Maximum Stack Usage for SetPin 0x20 bytes.
Call chain for maximum stack usage:
SetPin => CallErrorHandler

Maximum Stack Usage for InitPin 0x30 bytes.
Call chain for maximum stack usage:
InitPin => SetPin => CallErrorHandler

Maximum Stack Usage for FormQPinTable 0x14 bytes.
Call chain for maximum stack usage:
FormQPinTable

Maximum Stack Usage for Drebezg 0x14 bytes.
Call chain for maximum stack usage:
Drebezg

Maximum Stack Usage for QGetPin 0x28 bytes.
Call chain for maximum stack usage:
QGetPin => Drebezg

Maximum Stack Usage for InitVirtualPins 0x38 bytes.
Call chain for maximum stack usage:
InitVirtualPins => InitPin => SetPin => CallErrorHandler

Maximum Stack Usage for ProcessingAnswer 0x130 bytes.
Call chain for maximum stack usage:
ProcessingAnswer => Dump => Msg => __c89vsprintf

Maximum Stack Usage for ProcessingNoAnswer 0x128 bytes.
Call chain for maximum stack usage:
ProcessingNoAnswer => Dump => Msg => __c89vsprintf

Maximum Stack Usage for QueueProcessing 0x148 bytes.
Call chain for maximum stack usage:
QueueProcessing => ProcessingAnswer => Dump => Msg => __c89vsprintf

Maximum Stack Usage for quAddPack 0x130 bytes.
Call chain for maximum stack usage:
quAddPack => Dump => Msg => __c89vsprintf

Maximum Stack Usage for quInsPack 0x148 bytes.
Call chain for maximum stack usage:
quInsPack => quAddPack => Dump => Msg => __c89vsprintf

Maximum Stack Usage for quFixAnswer 0x10 bytes.
Call chain for maximum stack usage:
quFixAnswer

Maximum Stack Usage for DataToU1 0x158 bytes.
Call chain for maximum stack usage:
DataToU1 => mbInsPackToQueue => quInsPack => quAddPack => Dump => Msg => __c89vsprintf

Maximum Stack Usage for RunBootLoader 0x8 bytes.
Call chain for maximum stack usage:
RunBootLoader

Maximum Stack Usage for ReadRegs 0x50 bytes.
Call chain for maximum stack usage:
ReadRegs => mbSendPack => UART1_SendBuffer => UART1_IntTransmit

Maximum Stack Usage for EnableWrite 0x3c bytes.
Call chain for maximum stack usage:
EnableWrite => Cross

Maximum Stack Usage for _memcpy 0x8 bytes.
Call chain for maximum stack usage:
_memcpy

Maximum Stack Usage for WriteRegs 0x154 bytes.
Call chain for maximum stack usage:
WriteRegs => EnableWrite => Cross

Maximum Stack Usage for GoToPoint 0xb0 bytes.
Call chain for maximum stack usage:
GoToPoint => Msg => __c89vsprintf

Maximum Stack Usage for LSSendProc 0xc0 bytes.
Call chain for maximum stack usage:
LSSendProc => FISetFreq => Msg => __c89vsprintf

Maximum Stack Usage for QAllocTable 0xa0 bytes.
Call chain for maximum stack usage:
QAllocTable => Msg => __c89vsprintf

Maximum Stack Usage for pFS_FInfo 0xcc bytes.
Call chain for maximum stack usage:
pFS_FInfo => FS_GetFileInfo => FLASH_Read => FLASH_BankRead => FLASH_ReceiveByte => SSP0_SendByte

Maximum Stack Usage for pFS_SetFInfo 0xa0 bytes.
Call chain for maximum stack usage:
pFS_SetFInfo => Msg => __c89vsprintf

Maximum Stack Usage for pFS_Delete 0xb8 bytes.
Call chain for maximum stack usage:
pFS_Delete => Msg => __c89vsprintf

Maximum Stack Usage for pFS_Create 0xc0 bytes.
Call chain for maximum stack usage:
pFS_Create => Msg => __c89vsprintf

Maximum Stack Usage for pFS_Rewrite 0xc0 bytes.
Call chain for maximum stack usage:
pFS_Rewrite => Msg => __c89vsprintf

Maximum Stack Usage for pFS_RewriteHandle 0xa8 bytes.
Call chain for maximum stack usage:
pFS_RewriteHandle => Msg => __c89vsprintf

Maximum Stack Usage for pFS_Append 0xc0 bytes.
Call chain for maximum stack usage:
pFS_Append => Msg => __c89vsprintf

Maximum Stack Usage for pFS_Reset 0xc0 bytes.
Call chain for maximum stack usage:
pFS_Reset => Msg => __c89vsprintf

Maximum Stack Usage for pFS_Write 0xb0 bytes.
Call chain for maximum stack usage:
pFS_Write => Msg => __c89vsprintf

Maximum Stack Usage for bFS_WriteLn 0x68 bytes.
Call chain for maximum stack usage:
bFS_WriteLn => FS_WriteByte => FS_SetNextCluster => FLASH_Write => FLASH_PageWrite => FLASH_WaitWriting => FLASH_ReceiveByte => SSP0_SendByte

Maximum Stack Usage for pFS_WriteLn 0x178 bytes.
Call chain for maximum stack usage:
pFS_WriteLn => bFS_WriteLn => FS_WriteByte => FS_SetNextCluster => FLASH_Write => FLASH_PageWrite => FLASH_WaitWriting => FLASH_ReceiveByte => SSP0_SendByte

Maximum Stack Usage for pFS_Read 0xb0 bytes.
Call chain for maximum stack usage:
pFS_Read => Msg => __c89vsprintf

Maximum Stack Usage for pFS_ReadLn 0x1a8 bytes.
Call chain for maximum stack usage:
pFS_ReadLn => Msg => __c89vsprintf

Maximum Stack Usage for pFS_BReadLn 0x1ac bytes.
Call chain for maximum stack usage:
pFS_BReadLn => bFS_BReadLn => bFS_ReadLn => FS_RSeek => FS_GetNextCluster => FLASH_Read => FLASH_BankRead => FLASH_ReceiveByte => SSP0_SendByte

Maximum Stack Usage for pFS_Pos 0x48 bytes.
Call chain for maximum stack usage:
pFS_Pos => mbSendPack => UART1_SendBuffer => UART1_IntTransmit

Maximum Stack Usage for pFS_Seek 0xb0 bytes.
Call chain for maximum stack usage:
pFS_Seek => Msg => __c89vsprintf

Maximum Stack Usage for pFS_Close 0xa8 bytes.
Call chain for maximum stack usage:
pFS_Close => Msg => __c89vsprintf

Maximum Stack Usage for pCreateRegsBin 0xb0 bytes.
Call chain for maximum stack usage:
pCreateRegsBin => SaveRegs => Msg => __c89vsprintf

Maximum Stack Usage for pApplyRegsBin 0xc8 bytes.
Call chain for maximum stack usage:
pApplyRegsBin => LoadFrzBackupRegs => Msg => __c89vsprintf

Maximum Stack Usage for pReset 0x8 bytes.
Call chain for maximum stack usage:
pReset

Maximum Stack Usage for pFl_GetUsing 0x48 bytes.
Call chain for maximum stack usage:
pFl_GetUsing => mbSendPack => UART1_SendBuffer => UART1_IntTransmit

Maximum Stack Usage for pFl_BulkErase 0xc8 bytes.
Call chain for maximum stack usage:
pFl_BulkErase => FLASH_BulkErase => Msg => __c89vsprintf

Maximum Stack Usage for pGetRegInfo 0x68 bytes.
Call chain for maximum stack usage:
pGetRegInfo => mbSendPack => UART1_SendBuffer => UART1_IntTransmit

Maximum Stack Usage for pGetVersion 0xa8 bytes.
Call chain for maximum stack usage:
pGetVersion => Msg => __c89vsprintf

Maximum Stack Usage for pGetBusy 0xa8 bytes.
Call chain for maximum stack usage:
pGetBusy => Msg => __c89vsprintf

Maximum Stack Usage for pGetBlock 0x40 bytes.
Call chain for maximum stack usage:
pGetBlock => mbSendPack => UART1_SendBuffer => UART1_IntTransmit

Maximum Stack Usage for pGetTimers 0xb0 bytes.
Call chain for maximum stack usage:
pGetTimers => Msg => __c89vsprintf

Maximum Stack Usage for pInitZCorr 0x100 bytes.
Call chain for maximum stack usage:
pInitZCorr => InitZComp => Msg => __c89vsprintf

Maximum Stack Usage for pSetPin 0x40 bytes.
Call chain for maximum stack usage:
pSetPin => mbSendPack => UART1_SendBuffer => UART1_IntTransmit

Maximum Stack Usage for SendAddPointPackFrz 0x50 bytes.
Call chain for maximum stack usage:
SendAddPointPackFrz => mbSendPack => UART1_SendBuffer => UART1_IntTransmit

Maximum Stack Usage for mbFrzPackHandler0 0x1b4 bytes.
Call chain for maximum stack usage:
mbFrzPackHandler0 => pFS_BReadLn => bFS_BReadLn => bFS_ReadLn => FS_RSeek => FS_GetNextCluster => FLASH_Read => FLASH_BankRead => FLASH_ReceiveByte => SSP0_SendByte

Maximum Stack Usage for UART0_Thread 0x130 bytes.
Call chain for maximum stack usage:
UART0_Thread => mbIdle => Dump => Msg => __c89vsprintf

Maximum Stack Usage for mbFrzPackHandler1 0x10 bytes.
Call chain for maximum stack usage:
mbFrzPackHandler1 => quFixAnswer

Maximum Stack Usage for UART1_Thread 0x130 bytes.
Call chain for maximum stack usage:
UART1_Thread => mbIdle => Dump => Msg => __c89vsprintf

Maximum Stack Usage for OutNextTableLine 0xd0 bytes.
Call chain for maximum stack usage:
OutNextTableLine => Msg => __c89vsprintf

Maximum Stack Usage for main 0x1b0 bytes.
Call chain for maximum stack usage:
main => RunPrgFrz => RecoverBlock => TranslatePrg => CheckNextLine => TranslateLineToBlock => LineToBlock => Msg => __c89vsprintf

Maximum Stack Usage for InitPrgStreams 0xa8 bytes.
Call chain for maximum stack usage:
InitPrgStreams => Msg => __c89vsprintf

Maximum Stack Usage for TryStrToFloat 0x40 bytes.
Call chain for maximum stack usage:
TryStrToFloat => __aeabi_fmul

Maximum Stack Usage for ApplyCmd 0x58 bytes.
Call chain for maximum stack usage:
ApplyCmd => TryStrToFloat => __aeabi_fmul

Maximum Stack Usage for InitFirstBlockFrz 0x50 bytes.
Call chain for maximum stack usage:
InitFirstBlockFrz => XYZImpToXYZ => __aeabi_fmul

Maximum Stack Usage for InitBlockByPrev 0x60 bytes.
Call chain for maximum stack usage:
InitBlockByPrev => InitFirstBlockFrz => XYZImpToXYZ => __aeabi_fmul

Maximum Stack Usage for CalcBlockFrz 0x68 bytes.
Call chain for maximum stack usage:
CalcBlockFrz => XYZToXYZImpZcomp => ZComp => __aeabi_fmul

Maximum Stack Usage for G0Handler 0x70 bytes.
Call chain for maximum stack usage:
G0Handler => XYZToXYZImpZcomp => ZComp => __aeabi_fmul

Maximum Stack Usage for SetFeed 0x20 bytes.
Call chain for maximum stack usage:
SetFeed => __aeabi_fmul

Maximum Stack Usage for SetSpindle 0xb0 bytes.
Call chain for maximum stack usage:
SetSpindle => FISetFreq => Msg => __c89vsprintf

Maximum Stack Usage for SetCold 0xa0 bytes.
Call chain for maximum stack usage:
SetCold => Msg => __c89vsprintf

Maximum Stack Usage for SetGoFrz 0x70 bytes.
Call chain for maximum stack usage:
SetGoFrz => G0Handler => XYZToXYZImpZcomp => ZComp => __aeabi_fmul

Maximum Stack Usage for SetStop 0xa0 bytes.
Call chain for maximum stack usage:
SetStop => Msg => __c89vsprintf

Maximum Stack Usage for LineToBlock 0xd0 bytes.
Call chain for maximum stack usage:
LineToBlock => Msg => __c89vsprintf

Maximum Stack Usage for TranslateLineToBlock 0xf0 bytes.
Call chain for maximum stack usage:
TranslateLineToBlock => LineToBlock => Msg => __c89vsprintf

Maximum Stack Usage for InitQExBlks 0x4 bytes.
Call chain for maximum stack usage:
InitQExBlks => __aeabi_memclr4

Maximum Stack Usage for qbAddBlock 0x10 bytes.
Call chain for maximum stack usage:
qbAddBlock => __aeabi_memcpy4

Maximum Stack Usage for qbDelFirst 0x8 bytes.
Call chain for maximum stack usage:
qbDelFirst

Maximum Stack Usage for qbLastBlock 0xa8 bytes.
Call chain for maximum stack usage:
qbLastBlock => Msg => __c89vsprintf

Maximum Stack Usage for CheckAngle 0xa0 bytes.
Call chain for maximum stack usage:
CheckAngle => acos

Maximum Stack Usage for CheckNextLine 0x128 bytes.
Call chain for maximum stack usage:
CheckNextLine => TranslateLineToBlock => LineToBlock => Msg => __c89vsprintf

Maximum Stack Usage for TranslatePrgLine 0x108 bytes.
Call chain for maximum stack usage:
TranslatePrgLine => TranslateLineToBlock => LineToBlock => Msg => __c89vsprintf

Maximum Stack Usage for TranslatePrg 0x158 bytes.
Call chain for maximum stack usage:
TranslatePrg => CheckNextLine => TranslateLineToBlock => LineToBlock => Msg => __c89vsprintf

Maximum Stack Usage for SearchStopPoint 0x150 bytes.
Call chain for maximum stack usage:
SearchStopPoint => TranslateLineToBlock => LineToBlock => Msg => __c89vsprintf

Maximum Stack Usage for CrushWaterHandlerFrz 0xa0 bytes.
Call chain for maximum stack usage:
CrushWaterHandlerFrz => Msg => __c89vsprintf

Maximum Stack Usage for sG0HandlerFrz 0x14 bytes.
Call chain for maximum stack usage:
sG0HandlerFrz

Maximum Stack Usage for RunNextCadrFrzMain 0xd0 bytes.
Call chain for maximum stack usage:
RunNextCadrFrzMain => SetSpindle => FISetFreq => Msg => __c89vsprintf

Maximum Stack Usage for ZComp 0x28 bytes.
Call chain for maximum stack usage:
ZComp => __aeabi_fmul

Maximum Stack Usage for dXYZImpTodXYZ 0x30 bytes.
Call chain for maximum stack usage:
dXYZImpTodXYZ => __aeabi_fmul

Maximum Stack Usage for XYZImpToXYZ 0x30 bytes.
Call chain for maximum stack usage:
XYZImpToXYZ => __aeabi_fmul

Maximum Stack Usage for XYZToXYZImp 0x30 bytes.
Call chain for maximum stack usage:
XYZToXYZImp => __aeabi_fmul

Maximum Stack Usage for InitZComp 0xf8 bytes.
Call chain for maximum stack usage:
InitZComp => Msg => __c89vsprintf

Maximum Stack Usage for InitMotorStructF 0x48 bytes.
Call chain for maximum stack usage:
InitMotorStructF => __aeabi_uldivmod

Maximum Stack Usage for InitMotorStructALF 0x40 bytes.
Call chain for maximum stack usage:
InitMotorStructALF => __aeabi_uldivmod

Maximum Stack Usage for UpZ 0x8 bytes.
Call chain for maximum stack usage:
UpZ

Maximum Stack Usage for RecoveryZfreq 0xa8 bytes.
Call chain for maximum stack usage:
RecoveryZfreq => Msg => __c89vsprintf

Maximum Stack Usage for StartMoveZLowSpeed 0xb0 bytes.
Call chain for maximum stack usage:
StartMoveZLowSpeed => Msg => __c89vsprintf

Maximum Stack Usage for AddPointFrz 0xb8 bytes.
Call chain for maximum stack usage:
AddPointFrz => Msg => __c89vsprintf

Maximum Stack Usage for HTCorr 0x140 bytes.
Call chain for maximum stack usage:
HTCorr => InitZComp => Msg => __c89vsprintf

Maximum Stack Usage for XYZToXYZImpZcomp 0x48 bytes.
Call chain for maximum stack usage:
XYZToXYZImpZcomp => ZComp => __aeabi_fmul

Maximum Stack Usage for Brezenheim 0x24 bytes.
Call chain for maximum stack usage:
Brezenheim

Maximum Stack Usage for FMove_HandlerQuick 0xe8 bytes.
Call chain for maximum stack usage:
FMove_HandlerQuick => Msg => __c89vsprintf

Maximum Stack Usage for FIStop 0x8 bytes.
Call chain for maximum stack usage:
FIStop

Maximum Stack Usage for FIInit 0x10 bytes.
Call chain for maximum stack usage:
FIInit => FIStop

Maximum Stack Usage for FISetFreq 0xa8 bytes.
Call chain for maximum stack usage:
FISetFreq => Msg => __c89vsprintf

Maximum Stack Usage for FIStart 0x10 bytes.
Call chain for maximum stack usage:
FIStart => FIStop

Maximum Stack Usage for pDrDelayHandle 0x178 bytes.
Call chain for maximum stack usage:
pDrDelayHandle => mbInsCmd485 => mbInsPackToQueue => quInsPack => quAddPack => Dump => Msg => __c89vsprintf

Maximum Stack Usage for pDCTimeHandle 0x178 bytes.
Call chain for maximum stack usage:
pDCTimeHandle => mbInsCmd485 => mbInsPackToQueue => quInsPack => quAddPack => Dump => Msg => __c89vsprintf

Maximum Stack Usage for pPercVminHandle 0x178 bytes.
Call chain for maximum stack usage:
pPercVminHandle => mbInsCmd485 => mbInsPackToQueue => quInsPack => quAddPack => Dump => Msg => __c89vsprintf

Maximum Stack Usage for Cross 0x14 bytes.
Call chain for maximum stack usage:
Cross

Maximum Stack Usage for SetAddr 0xd0 bytes.
Call chain for maximum stack usage:
SetAddr => Msg => __c89vsprintf

Maximum Stack Usage for LoadRegsFromFile 0xa8 bytes.
Call chain for maximum stack usage:
LoadRegsFromFile => Msg => __c89vsprintf

Maximum Stack Usage for SaveRegs 0xa8 bytes.
Call chain for maximum stack usage:
SaveRegs => Msg => __c89vsprintf

Maximum Stack Usage for AllocFrzRegisters 0xe0 bytes.
Call chain for maximum stack usage:
AllocFrzRegisters => SetAddr => Msg => __c89vsprintf

Maximum Stack Usage for InitFrzRegisters 0x60 bytes.
Call chain for maximum stack usage:
InitFrzRegisters => InitMotorStructF => __aeabi_uldivmod

Maximum Stack Usage for InitFrzRegsAfterLoad 0x58 bytes.
Call chain for maximum stack usage:
InitFrzRegsAfterLoad => InitMotorStructALF => __aeabi_uldivmod

Maximum Stack Usage for LoadFrzBackupRegs 0xc0 bytes.
Call chain for maximum stack usage:
LoadFrzBackupRegs => Msg => __c89vsprintf

Maximum Stack Usage for KPInit 0x150 bytes.
Call chain for maximum stack usage:
KPInit => mbCmd485 => mbPackToQueue => quAddPack => Dump => Msg => __c89vsprintf

Maximum Stack Usage for KPQuery 0x148 bytes.
Call chain for maximum stack usage:
KPQuery => mbCmd485 => mbPackToQueue => quAddPack => Dump => Msg => __c89vsprintf

Maximum Stack Usage for KPAnswer 0x20 bytes.
Call chain for maximum stack usage:
KPAnswer

Maximum Stack Usage for MotorX_Handler 0xd8 bytes.
Call chain for maximum stack usage:
MotorX_Handler => PositX => Msg => __c89vsprintf

Maximum Stack Usage for MotorY_Handler 0xd0 bytes.
Call chain for maximum stack usage:
MotorY_Handler => PositY => Msg => __c89vsprintf

Maximum Stack Usage for MotorZ_Handler 0xd8 bytes.
Call chain for maximum stack usage:
MotorZ_Handler => MovePosZ => Msg => __c89vsprintf

Maximum Stack Usage for BtnsMotorXHandler 0x50 bytes.
Call chain for maximum stack usage:
BtnsMotorXHandler => QGetPin => Drebezg

Maximum Stack Usage for BtnsMotorYHandler 0x50 bytes.
Call chain for maximum stack usage:
BtnsMotorYHandler => QGetPin => Drebezg

Maximum Stack Usage for BtnsMotorZHandler 0x50 bytes.
Call chain for maximum stack usage:
BtnsMotorZHandler => QGetPin => Drebezg

Maximum Stack Usage for ButtonsToRegs 0x60 bytes.
Call chain for maximum stack usage:
ButtonsToRegs => BtnsMotorZHandler => QGetPin => Drebezg

Maximum Stack Usage for CheckPointFrz 0xc8 bytes.
Call chain for maximum stack usage:
CheckPointFrz => AddPointFrz => Msg => __c89vsprintf

Maximum Stack Usage for FormQueue 0x158 bytes.
Call chain for maximum stack usage:
FormQueue => KPQuery => mbCmd485 => mbPackToQueue => quAddPack => Dump => Msg => __c89vsprintf

Maximum Stack Usage for HTCheckPointFrz 0x150 bytes.
Call chain for maximum stack usage:
HTCheckPointFrz => HTCorr => InitZComp => Msg => __c89vsprintf

Maximum Stack Usage for InitFrzTimers 0x18 bytes.
Call chain for maximum stack usage:
InitFrzTimers => Init_TCS

Maximum Stack Usage for MoveBtnX 0x50 bytes.
Call chain for maximum stack usage:
MoveBtnX => __aeabi_uldivmod

Maximum Stack Usage for MoveBtnY 0x50 bytes.
Call chain for maximum stack usage:
MoveBtnY => __aeabi_uldivmod

Maximum Stack Usage for MoveBtnZ 0x50 bytes.
Call chain for maximum stack usage:
MoveBtnZ => __aeabi_uldivmod

Maximum Stack Usage for MoveByRegs 0x40 bytes.
Call chain for maximum stack usage:
MoveByRegs => __aeabi_dmul

Maximum Stack Usage for MovePosX 0xc0 bytes.
Call chain for maximum stack usage:
MovePosX => Msg => __c89vsprintf

Maximum Stack Usage for MovePosY 0x58 bytes.
Call chain for maximum stack usage:
MovePosY => __aeabi_uldivmod

Maximum Stack Usage for MovePosZ 0xc0 bytes.
Call chain for maximum stack usage:
MovePosZ => Msg => __c89vsprintf

Maximum Stack Usage for PositX 0xc0 bytes.
Call chain for maximum stack usage:
PositX => Msg => __c89vsprintf

Maximum Stack Usage for PositY 0xb8 bytes.
Call chain for maximum stack usage:
PositY => Msg => __c89vsprintf

Maximum Stack Usage for PositZ 0xb8 bytes.
Call chain for maximum stack usage:
PositZ => Msg => __c89vsprintf

Maximum Stack Usage for RecoverBlock 0x188 bytes.
Call chain for maximum stack usage:
RecoverBlock => TranslatePrg => CheckNextLine => TranslateLineToBlock => LineToBlock => Msg => __c89vsprintf

Maximum Stack Usage for RunPrgFrz 0x1a0 bytes.
Call chain for maximum stack usage:
RunPrgFrz => RecoverBlock => TranslatePrg => CheckNextLine => TranslateLineToBlock => LineToBlock => Msg => __c89vsprintf

Maximum Stack Usage for StopPrg 0xb8 bytes.
Call chain for maximum stack usage:
StopPrg => Msg => __c89vsprintf

Maximum Stack Usage for ZZCheckPointFrz 0xc8 bytes.
Call chain for maximum stack usage:
ZZCheckPointFrz => ZZeroDat => SaveRegs => Msg => __c89vsprintf

Maximum Stack Usage for ZZeroDat 0xb8 bytes.
Call chain for maximum stack usage:
ZZeroDat => SaveRegs => Msg => __c89vsprintf


Potential Stack Usage Inaccuracies.

Functions with no stack size information.

 * __user_initial_stackheap

Mutually recursive functions.

 * ADC_IRQHandler => ADC_IRQHandler

Untraceable function pointers.

 * ADC_IRQHandler from startup_lpc17xx.o(.text) referenced from startup_lpc17xx.o(RESET)
 * BOD_IRQHandler from startup_lpc17xx.o(.text) referenced from startup_lpc17xx.o(RESET)
 * BusFault_Handler from main.o(.text) referenced from startup_lpc17xx.o(RESET)
 * CANActivity_IRQHandler from startup_lpc17xx.o(.text) referenced from startup_lpc17xx.o(RESET)
 * CAN_IRQHandler from startup_lpc17xx.o(.text) referenced from startup_lpc17xx.o(RESET)
 * DMA_IRQHandler from startup_lpc17xx.o(.text) referenced from startup_lpc17xx.o(RESET)
 * DebugMon_Handler from main.o(.text) referenced from startup_lpc17xx.o(RESET)
 * EINT0_IRQHandler from startup_lpc17xx.o(.text) referenced from startup_lpc17xx.o(RESET)
 * EINT1_IRQHandler from startup_lpc17xx.o(.text) referenced from startup_lpc17xx.o(RESET)
 * EINT2_IRQHandler from startup_lpc17xx.o(.text) referenced from startup_lpc17xx.o(RESET)
 * EINT3_IRQHandler from startup_lpc17xx.o(.text) referenced from startup_lpc17xx.o(RESET)
 * ENET_IRQHandler from startup_lpc17xx.o(.text) referenced from startup_lpc17xx.o(RESET)
 * FMove_HandlerQuick from motors.o(.text) referenced from main.o(i.InitFrzTimers)
 * HardFault_Handler from main.o(.text) referenced from startup_lpc17xx.o(RESET)
 * I2C0_IRQHandler from startup_lpc17xx.o(.text) referenced from startup_lpc17xx.o(RESET)
 * I2C1_IRQHandler from startup_lpc17xx.o(.text) referenced from startup_lpc17xx.o(RESET)
 * I2C2_IRQHandler from startup_lpc17xx.o(.text) referenced from startup_lpc17xx.o(RESET)
 * I2S_IRQHandler from startup_lpc17xx.o(.text) referenced from startup_lpc17xx.o(RESET)
 * MCPWM_IRQHandler from startup_lpc17xx.o(.text) referenced from startup_lpc17xx.o(RESET)
 * MemManage_Handler from main.o(.text) referenced from startup_lpc17xx.o(RESET)
 * MotorX_Handler from motor_x.o(.text) referenced from main.o(i.InitFrzTimers)
 * MotorY_Handler from motor_y.o(.text) referenced from main.o(i.InitFrzTimers)
 * MotorZ_Handler from motor_z.o(.text) referenced from main.o(i.InitFrzTimers)
 * NMI_Handler from main.o(.text) referenced from startup_lpc17xx.o(RESET)
 * PLL0_IRQHandler from startup_lpc17xx.o(.text) referenced from startup_lpc17xx.o(RESET)
 * PLL1_IRQHandler from startup_lpc17xx.o(.text) referenced from startup_lpc17xx.o(RESET)
 * PWM1_IRQHandler from startup_lpc17xx.o(.text) referenced from startup_lpc17xx.o(RESET)
 * PendSV_Handler from main.o(.text) referenced from startup_lpc17xx.o(RESET)
 * PrgRunHandleFrz from regs.o(.text) referenced from regs.o(.text)
 * QEI_IRQHandler from startup_lpc17xx.o(.text) referenced from startup_lpc17xx.o(RESET)
 * RIT_IRQHandler from startup_lpc17xx.o(.text) referenced from startup_lpc17xx.o(RESET)
 * RTC_IRQHandler from startup_lpc17xx.o(.text) referenced from startup_lpc17xx.o(RESET)
 * Reset_Handler from startup_lpc17xx.o(.text) referenced from startup_lpc17xx.o(RESET)
 * SPI_IRQHandler from startup_lpc17xx.o(.text) referenced from startup_lpc17xx.o(RESET)
 * SSP0_IRQHandler from startup_lpc17xx.o(.text) referenced from startup_lpc17xx.o(RESET)
 * SSP1_IRQHandler from startup_lpc17xx.o(.text) referenced from startup_lpc17xx.o(RESET)
 * SVC_Handler from main.o(.text) referenced from startup_lpc17xx.o(RESET)
 * SysTick_Handler from main.o(.text) referenced from startup_lpc17xx.o(RESET)
 * SystemInit from system_lpc17xx.o(.text) referenced from startup_lpc17xx.o(.text)
 * TIMER0_IRQHandler from timers.o(.text) referenced from startup_lpc17xx.o(RESET)
 * TIMER1_IRQHandler from timers.o(.text) referenced from startup_lpc17xx.o(RESET)
 * TIMER2_IRQHandler from timers.o(.text) referenced from startup_lpc17xx.o(RESET)
 * TIMER3_IRQHandler from timers.o(.text) referenced from startup_lpc17xx.o(RESET)
 * UART0_IRQHandler from uart.o(.text) referenced from startup_lpc17xx.o(RESET)
 * UART1_IRQHandler from uart.o(.text) referenced from startup_lpc17xx.o(RESET)
 * UART2_IRQHandler from startup_lpc17xx.o(.text) referenced from startup_lpc17xx.o(RESET)
 * UART3_IRQHandler from startup_lpc17xx.o(.text) referenced from startup_lpc17xx.o(RESET)
 * USBActivity_IRQHandler from startup_lpc17xx.o(.text) referenced from startup_lpc17xx.o(RESET)
 * USB_IRQHandler from startup_lpc17xx.o(.text) referenced from startup_lpc17xx.o(RESET)
 * UsageFault_Handler from main.o(.text) referenced from startup_lpc17xx.o(RESET)
 * WDT_IRQHandler from startup_lpc17xx.o(.text) referenced from startup_lpc17xx.o(RESET)
 * XPositOnHandle from regs.o(.text) referenced from regs.o(.text)
 * YPositOnHandle from regs.o(.text) referenced from regs.o(.text)
 * ZPositOnHandle from regs.o(.text) referenced from regs.o(.text)
 * __main from __main.o(!!!main) referenced from startup_lpc17xx.o(.text)
 * _get_lc_ctype from lc_ctype_c.o(locale$$code) referenced from rt_ctype_table.o(.text)
 * _printf_input_char from _printf_char_common.o(.text) referenced from _printf_char_common.o(.text)
 * _sputc from _sputc.o(.text) referenced 2 times from c89vsprintf.o(.text)
 * mbFrzPackHandler0 from u0packets.o(.text) referenced from main.o(.text)
 * mbFrzPackHandler1 from u1packets.o(.text) referenced from main.o(.text)
 * mvcVHandleFrz from regs.o(.text) referenced from regs.o(.text)
 * pByPassHandle from regs.o(.text) referenced from regs.o(.text)
 * pCurCadrHandleFrz from regs.o(.text) referenced from regs.o(.text)
 * pDCTimeHandle from regs.o(.text) referenced from regs.o(.text)
 * pDrDelayHandle from regs.o(.text) referenced from regs.o(.text)
 * pPercVminHandle from regs.o(.text) referenced from regs.o(.text)

==============================================================================

Image Symbol Table

    Local Symbols

    Symbol Name                              Value     Ov Type        Size  Object(Section)

    ../clib/angel/boardlib.s                 0x00000000   Number         0  boardshut.o ABSOLUTE
    ../clib/angel/boardlib.s                 0x00000000   Number         0  boardinit3.o ABSOLUTE
    ../clib/angel/boardlib.s                 0x00000000   Number         0  boardinit1.o ABSOLUTE
    ../clib/angel/boardlib.s                 0x00000000   Number         0  boardinit2.o ABSOLUTE
    ../clib/angel/dclz77c.s                  0x00000000   Number         0  __dclz77c.o ABSOLUTE
    ../clib/angel/handlers.s                 0x00000000   Number         0  __scatter_zi.o ABSOLUTE
    ../clib/angel/kernel.s                   0x00000000   Number         0  rtexit.o ABSOLUTE
    ../clib/angel/kernel.s                   0x00000000   Number         0  __rtentry.o ABSOLUTE
    ../clib/angel/kernel.s                   0x00000000   Number         0  __rtentry2.o ABSOLUTE
    ../clib/angel/kernel.s                   0x00000000   Number         0  __rtentry4.o ABSOLUTE
    ../clib/angel/kernel.s                   0x00000000   Number         0  rtexit2.o ABSOLUTE
    ../clib/angel/rt.s                       0x00000000   Number         0  rt_locale.o ABSOLUTE
    ../clib/angel/rt.s                       0x00000000   Number         0  rt_ctype_table.o ABSOLUTE
    ../clib/angel/rt.s                       0x00000000   Number         0  aeabi_ldiv0_sigfpe.o ABSOLUTE
    ../clib/angel/rt.s                       0x00000000   Number         0  rt_locale_intlibspace.o ABSOLUTE
    ../clib/angel/rt.s                       0x00000000   Number         0  rt_errno_addr_intlibspace.o ABSOLUTE
    ../clib/angel/rt.s                       0x00000000   Number         0  aeabi_ldiv0.o ABSOLUTE
    ../clib/angel/rt.s                       0x00000000   Number         0  rt_errno_addr.o ABSOLUTE
    ../clib/angel/rt.s                       0x00000000   Number         0  rt_raise.o ABSOLUTE
    ../clib/angel/rt.s                       0x00000000   Number         0  rt_div0.o ABSOLUTE
    ../clib/angel/scatter.s                  0x00000000   Number         0  __scatter.o ABSOLUTE
    ../clib/angel/startup.s                  0x00000000   Number         0  __main.o ABSOLUTE
    ../clib/angel/sys.s                      0x00000000   Number         0  use_no_semi.o ABSOLUTE
    ../clib/angel/sys.s                      0x00000000   Number         0  indicate_semi.o ABSOLUTE
    ../clib/angel/sys.s                      0x00000000   Number         0  libspace.o ABSOLUTE
    ../clib/angel/sys.s                      0x00000000   Number         0  sys_stackheap_outer.o ABSOLUTE
    ../clib/angel/sysapp.c                   0x00000000   Number         0  sys_wrch.o ABSOLUTE
    ../clib/angel/sysapp.c                   0x00000000   Number         0  sys_command.o ABSOLUTE
    ../clib/angel/sysapp.c                   0x00000000   Number         0  sys_exit.o ABSOLUTE
    ../clib/armsys.c                         0x00000000   Number         0  argv_veneer.o ABSOLUTE
    ../clib/armsys.c                         0x00000000   Number         0  argv_veneer.o ABSOLUTE
    ../clib/armsys.c                         0x00000000   Number         0  no_argv.o ABSOLUTE
    ../clib/armsys.c                         0x00000000   Number         0  _get_argv_nomalloc.o ABSOLUTE
    ../clib/bigflt.c                         0x00000000   Number         0  bigflt0.o ABSOLUTE
    ../clib/btod.s                           0x00000000   Number         0  btod.o ABSOLUTE
    ../clib/fenv.c                           0x00000000   Number         0  _rserrno.o ABSOLUTE
    ../clib/heapalloc.c                      0x00000000   Number         0  hrguard.o ABSOLUTE
    ../clib/heapaux.c                        0x00000000   Number         0  heapauxi.o ABSOLUTE
    ../clib/libinit.s                        0x00000000   Number         0  libshutdown.o ABSOLUTE
    ../clib/libinit.s                        0x00000000   Number         0  libinit2.o ABSOLUTE
    ../clib/libinit.s                        0x00000000   Number         0  libinit.o ABSOLUTE
    ../clib/libinit.s                        0x00000000   Number         0  libshutdown2.o ABSOLUTE
    ../clib/locale.c                         0x00000000   Number         0  _wcrtomb.o ABSOLUTE
    ../clib/locale.s                         0x00000000   Number         0  lc_ctype_c.o ABSOLUTE
    ../clib/locale.s                         0x00000000   Number         0  lc_numeric_c.o ABSOLUTE
    ../clib/longlong.s                       0x00000000   Number         0  lludiv10.o ABSOLUTE
    ../clib/longlong.s                       0x00000000   Number         0  lludivv7m.o ABSOLUTE
    ../clib/memcpset.s                       0x00000000   Number         0  rt_memcpy_w.o ABSOLUTE
    ../clib/memcpset.s                       0x00000000   Number         0  rt_memclr_w.o ABSOLUTE
    ../clib/memcpset.s                       0x00000000   Number         0  strcmpv7m.o ABSOLUTE
    ../clib/memcpset.s                       0x00000000   Number         0  rt_memcpy_v6.o ABSOLUTE
    ../clib/memcpset.s                       0x00000000   Number         0  rt_memclr.o ABSOLUTE
    ../clib/misc.s                           0x00000000   Number         0  printf_stubs.o ABSOLUTE
    ../clib/printf.c                         0x00000000   Number         0  _printf_hex_ll.o ABSOLUTE
    ../clib/printf.c                         0x00000000   Number         0  _sputc.o ABSOLUTE
    ../clib/printf.c                         0x00000000   Number         0  _printf_char_common.o ABSOLUTE
    ../clib/printf.c                         0x00000000   Number         0  _printf_fp_dec.o ABSOLUTE
    ../clib/printf.c                         0x00000000   Number         0  _printf_fp_infnan.o ABSOLUTE
    ../clib/printf.c                         0x00000000   Number         0  __printf_nopercent.o ABSOLUTE
    ../clib/printf.c                         0x00000000   Number         0  _printf_char.o ABSOLUTE
    ../clib/printf.c                         0x00000000   Number         0  _printf_charcount.o ABSOLUTE
    ../clib/printf.c                         0x00000000   Number         0  _printf_intcommon.o ABSOLUTE
    ../clib/printf.c                         0x00000000   Number         0  _printf_str.o ABSOLUTE
    ../clib/printf.c                         0x00000000   Number         0  _printf_wchar.o ABSOLUTE
    ../clib/printf.c                         0x00000000   Number         0  _printf_truncate.o ABSOLUTE
    ../clib/printf.c                         0x00000000   Number         0  _printf_hex_int_ll_ptr.o ABSOLUTE
    ../clib/printf.c                         0x00000000   Number         0  _printf_oct_int.o ABSOLUTE
    ../clib/printf.c                         0x00000000   Number         0  _printf_oct_ll.o ABSOLUTE
    ../clib/printf.c                         0x00000000   Number         0  _printf_longlong_dec.o ABSOLUTE
    ../clib/printf.c                         0x00000000   Number         0  _printf_wctomb.o ABSOLUTE
    ../clib/printf.c                         0x00000000   Number         0  c89vsprintf.o ABSOLUTE
    ../clib/printf.c                         0x00000000   Number         0  __2sprintf.o ABSOLUTE
    ../clib/printf.c                         0x00000000   Number         0  noretval__2sprintf.o ABSOLUTE
    ../clib/printf.c                         0x00000000   Number         0  __printf.o ABSOLUTE
    ../clib/printf.c                         0x00000000   Number         0  _printf_pad.o ABSOLUTE
    ../clib/printf.c                         0x00000000   Number         0  _printf_dec.o ABSOLUTE
    ../clib/printf.c                         0x00000000   Number         0  _printf_hex_int.o ABSOLUTE
    ../clib/printf.c                         0x00000000   Number         0  _printf_hex_int_ll.o ABSOLUTE
    ../clib/printf.c                         0x00000000   Number         0  _printf_hex_ptr.o ABSOLUTE
    ../clib/printf.c                         0x00000000   Number         0  _printf_hex_int_ptr.o ABSOLUTE
    ../clib/printf.c                         0x00000000   Number         0  _printf_hex_ll_ptr.o ABSOLUTE
    ../clib/printf.c                         0x00000000   Number         0  __printf_flags.o ABSOLUTE
    ../clib/printf.c                         0x00000000   Number         0  __printf_ss.o ABSOLUTE
    ../clib/printf.c                         0x00000000   Number         0  __printf_flags_ss.o ABSOLUTE
    ../clib/printf.c                         0x00000000   Number         0  __printf_wp.o ABSOLUTE
    ../clib/printf.c                         0x00000000   Number         0  __printf_flags_wp.o ABSOLUTE
    ../clib/printf.c                         0x00000000   Number         0  __printf_ss_wp.o ABSOLUTE
    ../clib/printf.c                         0x00000000   Number         0  __printf_flags_ss_wp.o ABSOLUTE
    ../clib/printf.c                         0x00000000   Number         0  _printf_oct_int_ll.o ABSOLUTE
    ../clib/printf_percent.s                 0x00000000   Number         0  _printf_f.o ABSOLUTE
    ../clib/printf_percent.s                 0x00000000   Number         0  _printf_d.o ABSOLUTE
    ../clib/printf_percent.s                 0x00000000   Number         0  _printf_i.o ABSOLUTE
    ../clib/printf_percent.s                 0x00000000   Number         0  _printf_o.o ABSOLUTE
    ../clib/printf_percent.s                 0x00000000   Number         0  _printf_p.o ABSOLUTE
    ../clib/printf_percent.s                 0x00000000   Number         0  _printf_ls.o ABSOLUTE
    ../clib/printf_percent.s                 0x00000000   Number         0  _printf_ll.o ABSOLUTE
    ../clib/printf_percent.s                 0x00000000   Number         0  _printf_llu.o ABSOLUTE
    ../clib/printf_percent.s                 0x00000000   Number         0  _printf_n.o ABSOLUTE
    ../clib/printf_percent.s                 0x00000000   Number         0  _printf_lld.o ABSOLUTE
    ../clib/printf_percent.s                 0x00000000   Number         0  _printf_x.o ABSOLUTE
    ../clib/printf_percent.s                 0x00000000   Number         0  _printf_lli.o ABSOLUTE
    ../clib/printf_percent.s                 0x00000000   Number         0  _printf_percent.o ABSOLUTE
    ../clib/printf_percent.s                 0x00000000   Number         0  _printf_percent_end.o ABSOLUTE
    ../clib/printf_percent.s                 0x00000000   Number         0  _printf_lc.o ABSOLUTE
    ../clib/printf_percent.s                 0x00000000   Number         0  _printf_l.o ABSOLUTE
    ../clib/printf_percent.s                 0x00000000   Number         0  _printf_a.o ABSOLUTE
    ../clib/printf_percent.s                 0x00000000   Number         0  _printf_s.o ABSOLUTE
    ../clib/printf_percent.s                 0x00000000   Number         0  _printf_g.o ABSOLUTE
    ../clib/printf_percent.s                 0x00000000   Number         0  _printf_c.o ABSOLUTE
    ../clib/printf_percent.s                 0x00000000   Number         0  _printf_llx.o ABSOLUTE
    ../clib/printf_percent.s                 0x00000000   Number         0  _printf_llo.o ABSOLUTE
    ../clib/printf_percent.s                 0x00000000   Number         0  _printf_e.o ABSOLUTE
    ../clib/printf_percent.s                 0x00000000   Number         0  _printf_u.o ABSOLUTE
    ../clib/signal.c                         0x00000000   Number         0  __raise.o ABSOLUTE
    ../clib/signal.c                         0x00000000   Number         0  defsig_rtmem_outer.o ABSOLUTE
    ../clib/signal.c                         0x00000000   Number         0  defsig_fpe_formal.o ABSOLUTE
    ../clib/signal.c                         0x00000000   Number         0  defsig_fpe_outer.o ABSOLUTE
    ../clib/signal.c                         0x00000000   Number         0  defsig_abrt_inner.o ABSOLUTE
    ../clib/signal.c                         0x00000000   Number         0  defsig_rtred_inner.o ABSOLUTE
    ../clib/signal.c                         0x00000000   Number         0  defsig_rtmem_inner.o ABSOLUTE
    ../clib/signal.c                         0x00000000   Number         0  defsig_stak_inner.o ABSOLUTE
    ../clib/signal.c                         0x00000000   Number         0  defsig_pvfn_inner.o ABSOLUTE
    ../clib/signal.c                         0x00000000   Number         0  defsig_cppl_inner.o ABSOLUTE
    ../clib/signal.c                         0x00000000   Number         0  defsig_exit.o ABSOLUTE
    ../clib/signal.c                         0x00000000   Number         0  defsig_fpe_inner.o ABSOLUTE
    ../clib/signal.c                         0x00000000   Number         0  defsig_segv_inner.o ABSOLUTE
    ../clib/signal.c                         0x00000000   Number         0  defsig_other.o ABSOLUTE
    ../clib/signal.c                         0x00000000   Number         0  defsig_rtmem_formal.o ABSOLUTE
    ../clib/signal.c                         0x00000000   Number         0  defsig_general.o ABSOLUTE
    ../clib/signal.s                         0x00000000   Number         0  defsig.o ABSOLUTE
    ../clib/stdlib.c                         0x00000000   Number         0  exit.o ABSOLUTE
    ../clib/string.c                         0x00000000   Number         0  strlen.o ABSOLUTE
    ../clib/string.c                         0x00000000   Number         0  strcpy.o ABSOLUTE
    ../fplib/d2f.s                           0x00000000   Number         0  d2f.o ABSOLUTE
    ../fplib/daddsub.s                       0x00000000   Number         0  daddsub_clz.o ABSOLUTE
    ../fplib/dcheck1.s                       0x00000000   Number         0  dcheck1.o ABSOLUTE
    ../fplib/dcmpi.s                         0x00000000   Number         0  dcmpi.o ABSOLUTE
    ../fplib/ddiv.s                          0x00000000   Number         0  ddiv.o ABSOLUTE
    ../fplib/dfix.s                          0x00000000   Number         0  dfix.o ABSOLUTE
    ../fplib/dfixu.s                         0x00000000   Number         0  dfixu.o ABSOLUTE
    ../fplib/dfixull.s                       0x00000000   Number         0  dfixull.o ABSOLUTE
    ../fplib/dflt.s                          0x00000000   Number         0  dflt_clz.o ABSOLUTE
    ../fplib/dfltll.s                        0x00000000   Number         0  dfltll_clz.o ABSOLUTE
    ../fplib/dleqf.s                         0x00000000   Number         0  dleqf.o ABSOLUTE
    ../fplib/dmul.s                          0x00000000   Number         0  dmul.o ABSOLUTE
    ../fplib/dnaninf.s                       0x00000000   Number         0  dnaninf.o ABSOLUTE
    ../fplib/dretinf.s                       0x00000000   Number         0  dretinf.o ABSOLUTE
    ../fplib/drleqf.s                        0x00000000   Number         0  drleqf.o ABSOLUTE
    ../fplib/dsqrt.s                         0x00000000   Number         0  dsqrt_noumaal.o ABSOLUTE
    ../fplib/f2d.s                           0x00000000   Number         0  f2d.o ABSOLUTE
    ../fplib/faddsub.s                       0x00000000   Number         0  faddsub_clz.o ABSOLUTE
    ../fplib/fcmpi.s                         0x00000000   Number         0  fcmpi.o ABSOLUTE
    ../fplib/fdiv.s                          0x00000000   Number         0  fdiv.o ABSOLUTE
    ../fplib/feqf.s                          0x00000000   Number         0  feqf.o ABSOLUTE
    ../fplib/ffix.s                          0x00000000   Number         0  ffix.o ABSOLUTE
    ../fplib/fflt.s                          0x00000000   Number         0  fflt_clz.o ABSOLUTE
    ../fplib/fleqf.s                         0x00000000   Number         0  fleqf.o ABSOLUTE
    ../fplib/fmul.s                          0x00000000   Number         0  fmul.o ABSOLUTE
    ../fplib/fnaninf.s                       0x00000000   Number         0  fnaninf.o ABSOLUTE
    ../fplib/fpinit.s                        0x00000000   Number         0  fpinit.o ABSOLUTE
    ../fplib/fretinf.s                       0x00000000   Number         0  fretinf.o ABSOLUTE
    ../fplib/frleqf.s                        0x00000000   Number         0  frleqf.o ABSOLUTE
    ../fplib/istatus.s                       0x00000000   Number         0  istatus.o ABSOLUTE
    ../fplib/printf1.s                       0x00000000   Number         0  printf1.o ABSOLUTE
    ../fplib/retnan.s                        0x00000000   Number         0  retnan.o ABSOLUTE
    ../fplib/scalbn.s                        0x00000000   Number         0  scalbn.o ABSOLUTE
    ../fplib/trapv.s                         0x00000000   Number         0  trapv.o ABSOLUTE
    ../fplib/usenofp.s                       0x00000000   Number         0  usenofp.o ABSOLUTE
    ../mathlib/acos.c                        0x00000000   Number         0  acos.o ABSOLUTE
    ../mathlib/acos.c                        0x00000000   Number         0  acos_x.o ABSOLUTE
    ../mathlib/ceil.c                        0x00000000   Number         0  ceil.o ABSOLUTE
    ../mathlib/dunder.c                      0x00000000   Number         0  dunder.o ABSOLUTE
    ../mathlib/fpclassify.c                  0x00000000   Number         0  fpclassify.o ABSOLUTE
    ../mathlib/poly.c                        0x00000000   Number         0  poly.o ABSOLUTE
    ../mathlib/sqrt.c                        0x00000000   Number         0  sqrt.o ABSOLUTE
    ../mathlib/sqrt.c                        0x00000000   Number         0  sqrt_x.o ABSOLUTE
    CM3\CoreSupport\core_cm3.c               0x00000000   Number         0  core_cm3.o ABSOLUTE
    CM3\DeviceSupport\NXP\LPC17xx\startup\arm\startup_LPC17xx.s 0x00000000   Number         0  startup_lpc17xx.o ABSOLUTE
    CM3\DeviceSupport\NXP\LPC17xx\system_LPC17xx.c 0x00000000   Number         0  system_lpc17xx.o ABSOLUTE
    CM3\\DeviceSupport\\NXP\\LPC17xx\\system_LPC17xx.c 0x00000000   Number         0  system_lpc17xx.o ABSOLUTE
    Drivers\\sbl_iap.c                       0x00000000   Number         0  sbl_iap.o ABSOLUTE
    Drivers\\source\\lpc17xx_clkpwr.c        0x00000000   Number         0  lpc17xx_clkpwr.o ABSOLUTE
    Drivers\\source\\lpc17xx_pinsel.c        0x00000000   Number         0  lpc17xx_pinsel.o ABSOLUTE
    Drivers\\source\\lpc17xx_timer.c         0x00000000   Number         0  lpc17xx_timer.o ABSOLUTE
    Drivers\\source\\lpc17xx_uart.c          0x00000000   Number         0  lpc17xx_uart.o ABSOLUTE
    Drivers\sbl_iap.c                        0x00000000   Number         0  sbl_iap.o ABSOLUTE
    Drivers\source\lpc17xx_clkpwr.c          0x00000000   Number         0  lpc17xx_clkpwr.o ABSOLUTE
    Drivers\source\lpc17xx_pinsel.c          0x00000000   Number         0  lpc17xx_pinsel.o ABSOLUTE
    Drivers\source\lpc17xx_timer.c           0x00000000   Number         0  lpc17xx_timer.o ABSOLUTE
    Drivers\source\lpc17xx_uart.c            0x00000000   Number         0  lpc17xx_uart.o ABSOLUTE
    Main\FS.c                                0x00000000   Number         0  fs.o ABSOLUTE
    Main\FreqInvr.c                          0x00000000   Number         0  freqinvr.o ABSOLUTE
    Main\Handlers.c                          0x00000000   Number         0  handlers.o ABSOLUTE
    Main\KeyPad.c                            0x00000000   Number         0  keypad.o ABSOLUTE
    Main\Main.c                              0x00000000   Number         0  main.o ABSOLUTE
    Main\Modbus.c                            0x00000000   Number         0  modbus.o ABSOLUTE
    Main\Motor_X.c                           0x00000000   Number         0  motor_x.o ABSOLUTE
    Main\Motor_Y.c                           0x00000000   Number         0  motor_y.o ABSOLUTE
    Main\Motor_Z.c                           0x00000000   Number         0  motor_z.o ABSOLUTE
    Main\Motors.c                            0x00000000   Number         0  motors.o ABSOLUTE
    Main\VPFrz.c                             0x00000000   Number         0  vpfrz.o ABSOLUTE
    Main\\FS.c                               0x00000000   Number         0  fs.o ABSOLUTE
    Main\\FreqInvr.c                         0x00000000   Number         0  freqinvr.o ABSOLUTE
    Main\\Handlers.c                         0x00000000   Number         0  handlers.o ABSOLUTE
    Main\\Main.c                             0x00000000   Number         0  main.o ABSOLUTE
    Main\\Modbus.c                           0x00000000   Number         0  modbus.o ABSOLUTE
    Main\\Motor_X.c                          0x00000000   Number         0  motor_x.o ABSOLUTE
    Main\\Motor_Y.c                          0x00000000   Number         0  motor_y.o ABSOLUTE
    Main\\Motor_Z.c                          0x00000000   Number         0  motor_z.o ABSOLUTE
    Main\\Motors.c                           0x00000000   Number         0  motors.o ABSOLUTE
    Main\\msg.c                              0x00000000   Number         0  msg.o ABSOLUTE
    Main\\pwm.c                              0x00000000   Number         0  pwm.o ABSOLUTE
    Main\\queue.c                            0x00000000   Number         0  queue.o ABSOLUTE
    Main\\regs.c                             0x00000000   Number         0  regs.o ABSOLUTE
    Main\\u0packets.c                        0x00000000   Number         0  u0packets.o ABSOLUTE
    Main\\u1packets.c                        0x00000000   Number         0  u1packets.o ABSOLUTE
    Main\bFS.c                               0x00000000   Number         0  bfs.o ABSOLUTE
    Main\msg.c                               0x00000000   Number         0  msg.o ABSOLUTE
    Main\pwm.c                               0x00000000   Number         0  pwm.o ABSOLUTE
    Main\queue.c                             0x00000000   Number         0  queue.o ABSOLUTE
    Main\regs.c                              0x00000000   Number         0  regs.o ABSOLUTE
    Main\u0packets.c                         0x00000000   Number         0  u0packets.o ABSOLUTE
    Main\u1packets.c                         0x00000000   Number         0  u1packets.o ABSOLUTE
    UCNC\Flash.c                             0x00000000   Number         0  flash.o ABSOLUTE
    UCNC\StaticPins.c                        0x00000000   Number         0  staticpins.o ABSOLUTE
    UCNC\Timers.c                            0x00000000   Number         0  timers.o ABSOLUTE
    UCNC\Tools.c                             0x00000000   Number         0  tools.o ABSOLUTE
    UCNC\UART.c                              0x00000000   Number         0  uart.o ABSOLUTE
    UCNC\VirtualPins.c                       0x00000000   Number         0  virtualpins.o ABSOLUTE
    UCNC\\Flash.c                            0x00000000   Number         0  flash.o ABSOLUTE
    UCNC\\StaticPins.c                       0x00000000   Number         0  staticpins.o ABSOLUTE
    UCNC\\Timers.c                           0x00000000   Number         0  timers.o ABSOLUTE
    UCNC\\UART.c                             0x00000000   Number         0  uart.o ABSOLUTE
    UCNC\\VirtualPins.c                      0x00000000   Number         0  virtualpins.o ABSOLUTE
    UCNC\ti.c                                0x00000000   Number         0  ti.o ABSOLUTE
    dc.s                                     0x00000000   Number         0  dc.o ABSOLUTE
    .ARM.__at_0x02FC                         0x000002fc   Section        4  startup_lpc17xx.o(.ARM.__at_0x02FC)
    RESET                                    0x00002000   Section      204  startup_lpc17xx.o(RESET)
    !!!main                                  0x000020cc   Section        8  __main.o(!!!main)
    !!!scatter                               0x000020d4   Section       52  __scatter.o(!!!scatter)
    !!dclz77c                                0x00002108   Section      100  __dclz77c.o(!!dclz77c)
    !!handler_zi                             0x0000216c   Section       28  __scatter_zi.o(!!handler_zi)
    .ARM.Collect$$_printf_percent$$00000000  0x00002188   Section        0  _printf_percent.o(.ARM.Collect$$_printf_percent$$00000000)
    .ARM.Collect$$_printf_percent$$00000001  0x00002188   Section        6  _printf_n.o(.ARM.Collect$$_printf_percent$$00000001)
    .ARM.Collect$$_printf_percent$$00000002  0x0000218e   Section        6  _printf_p.o(.ARM.Collect$$_printf_percent$$00000002)
    .ARM.Collect$$_printf_percent$$00000003  0x00002194   Section        6  _printf_f.o(.ARM.Collect$$_printf_percent$$00000003)
    .ARM.Collect$$_printf_percent$$00000004  0x0000219a   Section        6  _printf_e.o(.ARM.Collect$$_printf_percent$$00000004)
    .ARM.Collect$$_printf_percent$$00000005  0x000021a0   Section        6  _printf_g.o(.ARM.Collect$$_printf_percent$$00000005)
    .ARM.Collect$$_printf_percent$$00000006  0x000021a6   Section        6  _printf_a.o(.ARM.Collect$$_printf_percent$$00000006)
    .ARM.Collect$$_printf_percent$$00000007  0x000021ac   Section       10  _printf_ll.o(.ARM.Collect$$_printf_percent$$00000007)
    .ARM.Collect$$_printf_percent$$00000008  0x000021b6   Section        6  _printf_i.o(.ARM.Collect$$_printf_percent$$00000008)
    .ARM.Collect$$_printf_percent$$00000009  0x000021bc   Section        6  _printf_d.o(.ARM.Collect$$_printf_percent$$00000009)
    .ARM.Collect$$_printf_percent$$0000000A  0x000021c2   Section        6  _printf_u.o(.ARM.Collect$$_printf_percent$$0000000A)
    .ARM.Collect$$_printf_percent$$0000000B  0x000021c8   Section        6  _printf_o.o(.ARM.Collect$$_printf_percent$$0000000B)
    .ARM.Collect$$_printf_percent$$0000000C  0x000021ce   Section        6  _printf_x.o(.ARM.Collect$$_printf_percent$$0000000C)
    .ARM.Collect$$_printf_percent$$0000000D  0x000021d4   Section        6  _printf_lli.o(.ARM.Collect$$_printf_percent$$0000000D)
    .ARM.Collect$$_printf_percent$$0000000E  0x000021da   Section        6  _printf_lld.o(.ARM.Collect$$_printf_percent$$0000000E)
    .ARM.Collect$$_printf_percent$$0000000F  0x000021e0   Section        6  _printf_llu.o(.ARM.Collect$$_printf_percent$$0000000F)
    .ARM.Collect$$_printf_percent$$00000010  0x000021e6   Section        6  _printf_llo.o(.ARM.Collect$$_printf_percent$$00000010)
    .ARM.Collect$$_printf_percent$$00000011  0x000021ec   Section        6  _printf_llx.o(.ARM.Collect$$_printf_percent$$00000011)
    .ARM.Collect$$_printf_percent$$00000012  0x000021f2   Section       10  _printf_l.o(.ARM.Collect$$_printf_percent$$00000012)
    .ARM.Collect$$_printf_percent$$00000013  0x000021fc   Section        6  _printf_c.o(.ARM.Collect$$_printf_percent$$00000013)
    .ARM.Collect$$_printf_percent$$00000014  0x00002202   Section        6  _printf_s.o(.ARM.Collect$$_printf_percent$$00000014)
    .ARM.Collect$$_printf_percent$$00000015  0x00002208   Section        6  _printf_lc.o(.ARM.Collect$$_printf_percent$$00000015)
    .ARM.Collect$$_printf_percent$$00000016  0x0000220e   Section        6  _printf_ls.o(.ARM.Collect$$_printf_percent$$00000016)
    .ARM.Collect$$_printf_percent$$00000017  0x00002214   Section        4  _printf_percent_end.o(.ARM.Collect$$_printf_percent$$00000017)
    .ARM.Collect$$libinit$$00000000          0x00002218   Section        2  libinit.o(.ARM.Collect$$libinit$$00000000)
    .ARM.Collect$$libinit$$00000002          0x0000221a   Section        0  libinit2.o(.ARM.Collect$$libinit$$00000002)
    .ARM.Collect$$libinit$$00000004          0x0000221a   Section        0  libinit2.o(.ARM.Collect$$libinit$$00000004)
    .ARM.Collect$$libinit$$0000000A          0x0000221a   Section        0  libinit2.o(.ARM.Collect$$libinit$$0000000A)
    .ARM.Collect$$libinit$$0000000C          0x0000221a   Section        0  libinit2.o(.ARM.Collect$$libinit$$0000000C)
    .ARM.Collect$$libinit$$0000000E          0x0000221a   Section        0  libinit2.o(.ARM.Collect$$libinit$$0000000E)
    .ARM.Collect$$libinit$$0000000F          0x0000221a   Section        6  libinit2.o(.ARM.Collect$$libinit$$0000000F)
    .ARM.Collect$$libinit$$00000011          0x00002220   Section        0  libinit2.o(.ARM.Collect$$libinit$$00000011)
    .ARM.Collect$$libinit$$00000012          0x00002220   Section       12  libinit2.o(.ARM.Collect$$libinit$$00000012)
    .ARM.Collect$$libinit$$00000013          0x0000222c   Section        0  libinit2.o(.ARM.Collect$$libinit$$00000013)
    .ARM.Collect$$libinit$$00000015          0x0000222c   Section        0  libinit2.o(.ARM.Collect$$libinit$$00000015)
    .ARM.Collect$$libinit$$00000016          0x0000222c   Section       10  libinit2.o(.ARM.Collect$$libinit$$00000016)
    .ARM.Collect$$libinit$$00000017          0x00002236   Section        0  libinit2.o(.ARM.Collect$$libinit$$00000017)
    .ARM.Collect$$libinit$$00000019          0x00002236   Section        0  libinit2.o(.ARM.Collect$$libinit$$00000019)
    .ARM.Collect$$libinit$$0000001B          0x00002236   Section        0  libinit2.o(.ARM.Collect$$libinit$$0000001B)
    .ARM.Collect$$libinit$$0000001D          0x00002236   Section        0  libinit2.o(.ARM.Collect$$libinit$$0000001D)
    .ARM.Collect$$libinit$$0000001F          0x00002236   Section        0  libinit2.o(.ARM.Collect$$libinit$$0000001F)
    .ARM.Collect$$libinit$$00000021          0x00002236   Section        0  libinit2.o(.ARM.Collect$$libinit$$00000021)
    .ARM.Collect$$libinit$$00000023          0x00002236   Section        0  libinit2.o(.ARM.Collect$$libinit$$00000023)
    .ARM.Collect$$libinit$$00000025          0x00002236   Section        0  libinit2.o(.ARM.Collect$$libinit$$00000025)
    .ARM.Collect$$libinit$$0000002C          0x00002236   Section        0  libinit2.o(.ARM.Collect$$libinit$$0000002C)
    .ARM.Collect$$libinit$$0000002E          0x00002236   Section        0  libinit2.o(.ARM.Collect$$libinit$$0000002E)
    .ARM.Collect$$libinit$$00000030          0x00002236   Section        0  libinit2.o(.ARM.Collect$$libinit$$00000030)
    .ARM.Collect$$libinit$$00000032          0x00002236   Section        0  libinit2.o(.ARM.Collect$$libinit$$00000032)
    .ARM.Collect$$libinit$$00000033          0x00002236   Section        2  libinit2.o(.ARM.Collect$$libinit$$00000033)
    .ARM.Collect$$libshutdown$$00000000      0x00002238   Section        2  libshutdown.o(.ARM.Collect$$libshutdown$$00000000)
    .ARM.Collect$$libshutdown$$00000002      0x0000223a   Section        0  libshutdown2.o(.ARM.Collect$$libshutdown$$00000002)
    .ARM.Collect$$libshutdown$$00000004      0x0000223a   Section        0  libshutdown2.o(.ARM.Collect$$libshutdown$$00000004)
    .ARM.Collect$$libshutdown$$00000007      0x0000223a   Section        0  libshutdown2.o(.ARM.Collect$$libshutdown$$00000007)
    .ARM.Collect$$libshutdown$$0000000A      0x0000223a   Section        0  libshutdown2.o(.ARM.Collect$$libshutdown$$0000000A)
    .ARM.Collect$$libshutdown$$0000000C      0x0000223a   Section        0  libshutdown2.o(.ARM.Collect$$libshutdown$$0000000C)
    .ARM.Collect$$libshutdown$$0000000F      0x0000223a   Section        0  libshutdown2.o(.ARM.Collect$$libshutdown$$0000000F)
    .ARM.Collect$$libshutdown$$00000010      0x0000223a   Section        2  libshutdown2.o(.ARM.Collect$$libshutdown$$00000010)
    .ARM.Collect$$rtentry$$00000000          0x0000223c   Section        0  __rtentry.o(.ARM.Collect$$rtentry$$00000000)
    .ARM.Collect$$rtentry$$00000002          0x0000223c   Section        0  __rtentry2.o(.ARM.Collect$$rtentry$$00000002)
    .ARM.Collect$$rtentry$$00000004          0x0000223c   Section        6  __rtentry4.o(.ARM.Collect$$rtentry$$00000004)
    .ARM.Collect$$rtentry$$00000009          0x00002242   Section        0  __rtentry2.o(.ARM.Collect$$rtentry$$00000009)
    .ARM.Collect$$rtentry$$0000000A          0x00002242   Section        4  __rtentry2.o(.ARM.Collect$$rtentry$$0000000A)
    .ARM.Collect$$rtentry$$0000000C          0x00002246   Section        0  __rtentry2.o(.ARM.Collect$$rtentry$$0000000C)
    .ARM.Collect$$rtentry$$0000000D          0x00002246   Section        8  __rtentry2.o(.ARM.Collect$$rtentry$$0000000D)
    .ARM.Collect$$rtexit$$00000000           0x0000224e   Section        2  rtexit.o(.ARM.Collect$$rtexit$$00000000)
    .ARM.Collect$$rtexit$$00000002           0x00002250   Section        0  rtexit2.o(.ARM.Collect$$rtexit$$00000002)
    .ARM.Collect$$rtexit$$00000003           0x00002250   Section        4  rtexit2.o(.ARM.Collect$$rtexit$$00000003)
    .ARM.Collect$$rtexit$$00000004           0x00002254   Section        6  rtexit2.o(.ARM.Collect$$rtexit$$00000004)
    .emb_text                                0x0000225c   Section        8  sbl_iap.o(.emb_text)
    .text                                    0x00002264   Section       64  startup_lpc17xx.o(.text)
    .text                                    0x000022a4   Section        0  system_lpc17xx.o(.text)
    .text                                    0x0000241c   Section        0  lpc17xx_clkpwr.o(.text)
    .text                                    0x00002524   Section        0  lpc17xx_pinsel.o(.text)
    .text                                    0x000025cc   Section        0  lpc17xx_uart.o(.text)
    uart_set_divisors                        0x000025cd   Thumb Code   320  lpc17xx_uart.o(.text)
    .text                                    0x00002bd8   Section        0  lpc17xx_timer.o(.text)
    .text                                    0x00002ed0   Section        0  modbus.o(.text)
    .text                                    0x00003254   Section        0  fs.o(.text)
    .text                                    0x00004870   Section        0  msg.o(.text)
    .text                                    0x00004940   Section        0  bfs.o(.text)
    .text                                    0x00004b78   Section        0  ti.o(.text)
    .text                                    0x00004bb0   Section        0  timers.o(.text)
    NVIC_EnableIRQ                           0x000051a7   Thumb Code    22  timers.o(.text)
    NVIC_SetPriority                         0x000051bd   Thumb Code    32  timers.o(.text)
    .text                                    0x000051e4   Section        0  uart.o(.text)
    NVIC_EnableIRQ                           0x0000585b   Thumb Code    22  uart.o(.text)
    NVIC_SetPriority                         0x00005871   Thumb Code    32  uart.o(.text)
    .text                                    0x000058ac   Section        0  tools.o(.text)
    .text                                    0x000058fc   Section        0  flash.o(.text)
    .text                                    0x00005fb8   Section        0  virtualpins.o(.text)
    .text                                    0x00006504   Section        0  queue.o(.text)
    .text                                    0x00006b04   Section        0  u0packets.o(.text)
    NVIC_DisableIRQ                          0x00007d8d   Thumb Code    22  u0packets.o(.text)
    .text                                    0x00007dcc   Section        0  u1packets.o(.text)
    .text                                    0x00007e14   Section        0  main.o(.text)
    .text                                    0x0000820c   Section        0  handlers.o(.text)
    .text                                    0x00009e14   Section        0  motors.o(.text)
    .text                                    0x0000b524   Section        0  freqinvr.o(.text)
    .text                                    0x0000b60c   Section        0  regs.o(.text)
    .text                                    0x0000d17c   Section        0  keypad.o(.text)
    .text                                    0x0000d270   Section        0  motor_x.o(.text)
    .text                                    0x0000d344   Section        0  motor_y.o(.text)
    .text                                    0x0000d428   Section        0  motor_z.o(.text)
    .text                                    0x0000d4fc   Section        0  pwm.o(.text)
    .text                                    0x0000d54c   Section      238  lludivv7m.o(.text)
    .text                                    0x0000d63c   Section        0  c89vsprintf.o(.text)
    .text                                    0x0000d660   Section        0  __2sprintf.o(.text)
    .text                                    0x0000d68c   Section        0  _printf_pad.o(.text)
    .text                                    0x0000d6dc   Section        0  _printf_dec.o(.text)
    .text                                    0x0000d754   Section        0  _printf_hex_int_ll_ptr.o(.text)
    _printf_hex_common                       0x0000d755   Thumb Code     0  _printf_hex_int_ll_ptr.o(.text)
    .text                                    0x0000d7e8   Section        0  __printf_flags_ss_wp.o(.text)
    .text                                    0x0000d970   Section        0  strcpy.o(.text)
    .text                                    0x0000d9b8   Section        0  strlen.o(.text)
    .text                                    0x0000d9f6   Section      138  rt_memcpy_v6.o(.text)
    .text                                    0x0000da80   Section      100  rt_memcpy_w.o(.text)
    .text                                    0x0000dae4   Section       68  rt_memclr.o(.text)
    .text                                    0x0000db28   Section       78  rt_memclr_w.o(.text)
    .text                                    0x0000db78   Section      128  strcmpv7m.o(.text)
    .text                                    0x0000dbf8   Section        0  heapauxi.o(.text)
    .text                                    0x0000dbfe   Section        0  _rserrno.o(.text)
    .text                                    0x0000dc14   Section        0  _printf_truncate.o(.text)
    .text                                    0x0000dc38   Section        0  _printf_str.o(.text)
    .text                                    0x0000dc8a   Section        0  _printf_intcommon.o(.text)
    .text                                    0x0000dd3c   Section        0  _printf_charcount.o(.text)
    .text                                    0x0000dd64   Section        0  _printf_fp_dec.o(.text)
    _fp_digits                               0x0000dd67   Thumb Code   428  _printf_fp_dec.o(.text)
    .text                                    0x0000e180   Section        0  _printf_char_common.o(.text)
    _printf_input_char                       0x0000e181   Thumb Code    10  _printf_char_common.o(.text)
    .text                                    0x0000e1b0   Section        0  _sputc.o(.text)
    .text                                    0x0000e1bc   Section        0  _printf_wctomb.o(.text)
    .text                                    0x0000e278   Section        0  _printf_longlong_dec.o(.text)
    .text                                    0x0000e2f4   Section        0  _printf_oct_int_ll.o(.text)
    _printf_longlong_oct_internal            0x0000e2f5   Thumb Code     0  _printf_oct_int_ll.o(.text)
    .text                                    0x0000e364   Section        8  rt_locale_intlibspace.o(.text)
    .text                                    0x0000e36c   Section        8  rt_errno_addr_intlibspace.o(.text)
    .text                                    0x0000e374   Section      138  lludiv10.o(.text)
    .text                                    0x0000e400   Section        0  _printf_fp_infnan.o(.text)
    .text                                    0x0000e480   Section        0  _printf_char.o(.text)
    .text                                    0x0000e4ac   Section        0  _printf_wchar.o(.text)
    .text                                    0x0000e4d8   Section        0  bigflt0.o(.text)
    .text                                    0x0000e5b4   Section        0  _wcrtomb.o(.text)
    .text                                    0x0000e5f4   Section        8  libspace.o(.text)
    .text                                    0x0000e5fc   Section       74  sys_stackheap_outer.o(.text)
    .text                                    0x0000e648   Section       16  rt_ctype_table.o(.text)
    .text                                    0x0000e658   Section        0  exit.o(.text)
    .text                                    0x0000e66c   Section        0  sys_exit.o(.text)
    .text                                    0x0000e678   Section        2  use_no_semi.o(.text)
    .text                                    0x0000e67a   Section        0  indicate_semi.o(.text)
    CL$$btod_d2e                             0x0000e67a   Section       62  btod.o(CL$$btod_d2e)
    CL$$btod_d2e_denorm_low                  0x0000e6b8   Section       70  btod.o(CL$$btod_d2e_denorm_low)
    CL$$btod_d2e_norm_op1                    0x0000e6fe   Section       96  btod.o(CL$$btod_d2e_norm_op1)
    CL$$btod_div_common                      0x0000e75e   Section      824  btod.o(CL$$btod_div_common)
    CL$$btod_e2e                             0x0000ea96   Section      198  btod.o(CL$$btod_e2e)
    CL$$btod_ediv                            0x0000eb5c   Section       40  btod.o(CL$$btod_ediv)
    CL$$btod_emul                            0x0000eb84   Section       40  btod.o(CL$$btod_emul)
    CL$$btod_mult_common                     0x0000ebac   Section      580  btod.o(CL$$btod_mult_common)
    i.BtnsMotorXHandler                      0x0000edf0   Section        0  main.o(i.BtnsMotorXHandler)
    i.BtnsMotorYHandler                      0x0000eeec   Section        0  main.o(i.BtnsMotorYHandler)
    i.BtnsMotorZHandler                      0x0000efe8   Section        0  main.o(i.BtnsMotorZHandler)
    i.ButtonsToRegs                          0x0000f0e4   Section        0  main.o(i.ButtonsToRegs)
    i.CheckPointFrz                          0x0000f18c   Section        0  main.o(i.CheckPointFrz)
    i.FormQueue                              0x0000f210   Section        0  main.o(i.FormQueue)
    i.HTCheckPointFrz                        0x0000f278   Section        0  main.o(i.HTCheckPointFrz)
    i.InitFrzTimers                          0x0000f2fc   Section        0  main.o(i.InitFrzTimers)
    i.MoveBtnX                               0x0000f3b4   Section        0  motor_x.o(i.MoveBtnX)
    i.MoveBtnY                               0x0000f9cc   Section        0  motor_y.o(i.MoveBtnY)
    i.MoveBtnZ                               0x0000fff4   Section        0  motor_z.o(i.MoveBtnZ)
    i.MoveByRegs                             0x000105bc   Section        0  main.o(i.MoveByRegs)
    i.MovePosX                               0x00010728   Section        0  motor_x.o(i.MovePosX)
    i.MovePosY                               0x00010bb8   Section        0  motor_y.o(i.MovePosY)
    i.MovePosZ                               0x00010f88   Section        0  motor_z.o(i.MovePosZ)
    i.PositX                                 0x00011344   Section        0  motor_x.o(i.PositX)
    i.PositY                                 0x00011594   Section        0  motor_y.o(i.PositY)
    i.PositZ                                 0x000117f4   Section        0  motor_z.o(i.PositZ)
    i.RecoverBlock                           0x00011a2c   Section        0  main.o(i.RecoverBlock)
    i.RunPrgFrz                              0x00011c8c   Section        0  main.o(i.RunPrgFrz)
    i.StopPrg                                0x00011d9c   Section        0  main.o(i.StopPrg)
    i.ZZCheckPointFrz                        0x00011e78   Section        0  main.o(i.ZZCheckPointFrz)
    i.ZZeroDat                               0x00011efc   Section        0  main.o(i.ZZeroDat)
    i.__ARM_fpclassify                       0x00011f70   Section        0  fpclassify.o(i.__ARM_fpclassify)
    i.__kernel_poly                          0x00011f98   Section        0  poly.o(i.__kernel_poly)
    i.__mathlib_dbl_infnan                   0x00012042   Section        0  dunder.o(i.__mathlib_dbl_infnan)
    i.__mathlib_dbl_invalid                  0x00012048   Section        0  dunder.o(i.__mathlib_dbl_invalid)
    i._is_digit                              0x00012054   Section        0  __printf_wp.o(i._is_digit)
    i.acos                                   0x00012064   Section        0  acos.o(i.acos)
    i.ceil                                   0x000122e0   Section        0  ceil.o(i.ceil)
    i.sqrt                                   0x000123bc   Section        0  sqrt.o(i.sqrt)
    locale$$code                             0x00012408   Section       44  lc_numeric_c.o(locale$$code)
    locale$$code                             0x00012434   Section       44  lc_ctype_c.o(locale$$code)
    x$fpl$d2f                                0x00012460   Section       98  d2f.o(x$fpl$d2f)
    x$fpl$dadd                               0x000124c4   Section      336  daddsub_clz.o(x$fpl$dadd)
    _dadd1                                   0x000124d5   Thumb Code     0  daddsub_clz.o(x$fpl$dadd)
    x$fpl$dcheck1                            0x00012614   Section       16  dcheck1.o(x$fpl$dcheck1)
    x$fpl$dcmpinf                            0x00012624   Section       24  dcmpi.o(x$fpl$dcmpinf)
    x$fpl$ddiv                               0x0001263c   Section      688  ddiv.o(x$fpl$ddiv)
    ddiv_entry                               0x00012643   Thumb Code     0  ddiv.o(x$fpl$ddiv)
    x$fpl$dfix                               0x000128ec   Section       94  dfix.o(x$fpl$dfix)
    x$fpl$dfixu                              0x0001294c   Section       90  dfixu.o(x$fpl$dfixu)
    x$fpl$dflt                               0x000129a6   Section       46  dflt_clz.o(x$fpl$dflt)
    x$fpl$dfltu                              0x000129d4   Section       38  dflt_clz.o(x$fpl$dfltu)
    x$fpl$dfltull                            0x000129fc   Section      138  dfltll_clz.o(x$fpl$dfltull)
    x$fpl$dleqf                              0x00012a88   Section      120  dleqf.o(x$fpl$dleqf)
    x$fpl$dmul                               0x00012b00   Section      340  dmul.o(x$fpl$dmul)
    x$fpl$dnaninf                            0x00012c54   Section      156  dnaninf.o(x$fpl$dnaninf)
    x$fpl$dretinf                            0x00012cf0   Section       12  dretinf.o(x$fpl$dretinf)
    x$fpl$drleqf                             0x00012cfc   Section      108  drleqf.o(x$fpl$drleqf)
    x$fpl$drsb                               0x00012d68   Section       22  daddsub_clz.o(x$fpl$drsb)
    x$fpl$dsqrt                              0x00012d80   Section      460  dsqrt_noumaal.o(x$fpl$dsqrt)
    x$fpl$dsub                               0x00012f4c   Section      468  daddsub_clz.o(x$fpl$dsub)
    _dsub1                                   0x00012f5d   Thumb Code     0  daddsub_clz.o(x$fpl$dsub)
    x$fpl$f2d                                0x00013120   Section       86  f2d.o(x$fpl$f2d)
    x$fpl$fadd                               0x00013178   Section      196  faddsub_clz.o(x$fpl$fadd)
    _fadd1                                   0x00013187   Thumb Code     0  faddsub_clz.o(x$fpl$fadd)
    x$fpl$fcmpinf                            0x0001323c   Section       24  fcmpi.o(x$fpl$fcmpinf)
    x$fpl$fdiv                               0x00013254   Section      388  fdiv.o(x$fpl$fdiv)
    _fdiv1                                   0x00013255   Thumb Code     0  fdiv.o(x$fpl$fdiv)
    x$fpl$feqf                               0x000133d8   Section      104  feqf.o(x$fpl$feqf)
    x$fpl$ffix                               0x00013440   Section       54  ffix.o(x$fpl$ffix)
    x$fpl$fflt                               0x00013478   Section       48  fflt_clz.o(x$fpl$fflt)
    x$fpl$ffltu                              0x000134a8   Section       38  fflt_clz.o(x$fpl$ffltu)
    x$fpl$fleqf                              0x000134d0   Section      104  fleqf.o(x$fpl$fleqf)
    x$fpl$fmul                               0x00013538   Section      258  fmul.o(x$fpl$fmul)
    x$fpl$fnaninf                            0x0001363a   Section      140  fnaninf.o(x$fpl$fnaninf)
    x$fpl$fretinf                            0x000136c6   Section       10  fretinf.o(x$fpl$fretinf)
    x$fpl$frleqf                             0x000136d0   Section       98  frleqf.o(x$fpl$frleqf)
    x$fpl$frsb                               0x00013732   Section       20  faddsub_clz.o(x$fpl$frsb)
    x$fpl$fsub                               0x00013748   Section      234  faddsub_clz.o(x$fpl$fsub)
    _fsub1                                   0x00013757   Thumb Code     0  faddsub_clz.o(x$fpl$fsub)
    x$fpl$llufromd                           0x00013834   Section      120  dfixull.o(x$fpl$llufromd)
    x$fpl$printf1                            0x000138ac   Section        4  printf1.o(x$fpl$printf1)
    x$fpl$retnan                             0x000138b0   Section      100  retnan.o(x$fpl$retnan)
    x$fpl$scalbn                             0x00013914   Section       92  scalbn.o(x$fpl$scalbn)
    x$fpl$trapveneer                         0x00013970   Section       48  trapv.o(x$fpl$trapveneer)
    .constdata                               0x000139a0   Section      512  modbus.o(.constdata)
    x$fpl$usenofp                            0x000139a0   Section        0  usenofp.o(x$fpl$usenofp)
    wCRCTable                                0x000139a0   Data         512  modbus.o(.constdata)
    .constdata                               0x00013ba0   Section       16  flash.o(.constdata)
    .constdata                               0x00013bb0   Section       40  _printf_hex_int_ll_ptr.o(.constdata)
    uc_hextab                                0x00013bb0   Data          20  _printf_hex_int_ll_ptr.o(.constdata)
    lc_hextab                                0x00013bc4   Data          20  _printf_hex_int_ll_ptr.o(.constdata)
    .constdata                               0x00013bd8   Section       17  __printf_flags_ss_wp.o(.constdata)
    maptable                                 0x00013bd8   Data          17  __printf_flags_ss_wp.o(.constdata)
    .constdata                               0x00013bf0   Section       80  acos.o(.constdata)
    pS                                       0x00013bf0   Data          48  acos.o(.constdata)
    qS                                       0x00013c20   Data          32  acos.o(.constdata)
    .constdata                               0x00013c40   Section        8  _printf_wctomb.o(.constdata)
    initial_mbstate                          0x00013c40   Data           8  _printf_wctomb.o(.constdata)
    .constdata                               0x00013c48   Section      148  bigflt0.o(.constdata)
    tenpwrs_x                                0x00013c48   Data          60  bigflt0.o(.constdata)
    tenpwrs_i                                0x00013c84   Data          64  bigflt0.o(.constdata)
    .conststring                             0x00013cdc   Section      235  main.o(.conststring)
    .conststring                             0x00013dc8   Section       88  motors.o(.conststring)
    .conststring                             0x00013e20   Section      102  motor_x.o(.conststring)
    .conststring                             0x00013e88   Section       86  motor_y.o(.conststring)
    .conststring                             0x00013ee0   Section       86  motor_z.o(.conststring)
    locale$$data                             0x00013f78   Section       28  lc_numeric_c.o(locale$$data)
    __lcnum_c_name                           0x00013f7c   Data           2  lc_numeric_c.o(locale$$data)
    __lcnum_c_start                          0x00013f84   Data           0  lc_numeric_c.o(locale$$data)
    __lcnum_c_point                          0x00013f90   Data           0  lc_numeric_c.o(locale$$data)
    __lcnum_c_thousands                      0x00013f92   Data           0  lc_numeric_c.o(locale$$data)
    __lcnum_c_grouping                       0x00013f93   Data           0  lc_numeric_c.o(locale$$data)
    locale$$data                             0x00013f94   Section      272  lc_ctype_c.o(locale$$data)
    __lcnum_c_end                            0x00013f94   Data           0  lc_numeric_c.o(locale$$data)
    __lcctype_c_name                         0x00013f98   Data           2  lc_ctype_c.o(locale$$data)
    __lcctype_c_start                        0x00013fa0   Data           0  lc_ctype_c.o(locale$$data)
    __lcctype_c_end                          0x000140a4   Data           0  lc_ctype_c.o(locale$$data)
    .data                                    0x10000000   Section        4  system_lpc17xx.o(.data)
    .data                                    0x10000004   Section       24  modbus.o(.data)
    .data                                    0x1000001c   Section       44  fs.o(.data)
    .data                                    0x10000048   Section        8  msg.o(.data)
    .data                                    0x10000050   Section      256  tools.o(.data)
    .data                                    0x10000150   Section      432  staticpins.o(.data)
    .data                                    0x10000300   Section        3  queue.o(.data)
    .data                                    0x10000304   Section       92  handlers.o(.data)
    .data                                    0x10000360   Section      152  motors.o(.data)
    .data                                    0x100003f8   Section        1  regs.o(.data)
    .data                                    0x100003fc   Section        4  regs.o(.data)
    .data                                    0x10000400   Section      108  vpfrz.o(.data)
    .data                                    0x1000046c   Section       20  keypad.o(.data)
    .data                                    0x10000480   Section        4  keypad.o(.data)
    .data                                    0x10000484   Section        4  keypad.o(.data)
    .data                                    0x10000488   Section        4  keypad.o(.data)
    .data                                    0x1000048c   Section        1  motor_y.o(.data)
    .data__ZZ11Btn5HandlerE1f                0x1000048d   Section        1  main.o(.data__ZZ11Btn5HandlerE1f)
    .data__ZZ11ZZeroDatFrzE2f2               0x1000048e   Section        1  main.o(.data__ZZ11ZZeroDatFrzE2f2)
    .data__ZZ13CheckPointFrzE2f4             0x1000048f   Section        1  main.o(.data__ZZ13CheckPointFrzE2f4)
    .data__ZZ15HTCheckPointFrzE2f6           0x10000490   Section        1  main.o(.data__ZZ15HTCheckPointFrzE2f6)
    .data__ZZ15ZZCheckPointFrzE2f6           0x10000491   Section        1  main.o(.data__ZZ15ZZCheckPointFrzE2f6)
    .data__ZZ17BtnsMotorXHandlerE2fD         0x10000492   Section        1  main.o(.data__ZZ17BtnsMotorXHandlerE2fD)
    .data__ZZ17BtnsMotorYHandlerE2fD         0x10000493   Section        1  main.o(.data__ZZ17BtnsMotorYHandlerE2fD)
    .data__ZZ17BtnsMotorZHandlerE2fD         0x10000494   Section        1  main.o(.data__ZZ17BtnsMotorZHandlerE2fD)
    .data__ZZ9ByPassFrzE2f1                  0x10000495   Section        1  main.o(.data__ZZ9ByPassFrzE2f1)
    .bss                                     0x10000498   Section     9472  modbus.o(.bss)
    .bss                                     0x10002998   Section     2616  fs.o(.bss)
    .bss                                     0x100033d0   Section      240  ti.o(.bss)
    .bss                                     0x100034c0   Section     2096  uart.o(.bss)
    .bss                                     0x10003cf0   Section     2016  flash.o(.bss)
    .bss                                     0x100044d0   Section      282  main.o(.bss)
    .bss                                     0x100045ec   Section     3354  handlers.o(.bss)
    .bss                                     0x10005308   Section       72  motors.o(.bss)
    .bss                                     0x10005350   Section      128  motor_y.o(.bss)
    .data                                    0x2007c000   Section        1  modbus.o(.data)
    .data                                    0x2007c004   Section       64  timers.o(.data)
    .data                                    0x2007c044   Section        8  uart.o(.data)
    .data                                    0x2007c04c   Section     4016  flash.o(.data)
    W1                                       0x2007c04c   Data           4  flash.o(.data)
    W                                        0x2007c058   Data           4  flash.o(.data)
    .data                                    0x2007cffc   Section       80  virtualpins.o(.data)
    .data                                    0x2007d04c   Section       20  main.o(.data)
    .data                                    0x2007d060   Section        4  handlers.o(.data)
    .data                                    0x2007d064   Section       12  freqinvr.o(.data)
    .data                                    0x2007d070   Section      196  regs.o(.data)
    CurBase                                  0x2007d078   Data           4  regs.o(.data)
    CurOffset                                0x2007d130   Data           4  regs.o(.data)
    .data                                    0x2007d134   Section        4  keypad.o(.data)
    .data                                    0x2007d138   Section        4  keypad.o(.data)
    .data                                    0x2007d13c   Section        4  keypad.o(.data)
    .data                                    0x2007d140   Section        4  keypad.o(.data)
    .data                                    0x2007d144   Section        1  motor_x.o(.data)
    .data                                    0x2007d145   Section        1  motor_z.o(.data)
    .data__ZZ13CheckPointFrzE2f3             0x2007d146   Section        1  main.o(.data__ZZ13CheckPointFrzE2f3)
    .data__ZZ13CrushWaterFrzE1f              0x2007d147   Section        1  main.o(.data__ZZ13CrushWaterFrzE1f)
    .data__ZZ15HTCheckPointFrzE2f5           0x2007d148   Section        1  main.o(.data__ZZ15HTCheckPointFrzE2f5)
    .data__ZZ15ZZCheckPointFrzE2f5           0x2007d149   Section        1  main.o(.data__ZZ15ZZCheckPointFrzE2f5)
    .data__ZZ17BtnsMotorXHandlerE2fB         0x2007d14a   Section        1  main.o(.data__ZZ17BtnsMotorXHandlerE2fB)
    .data__ZZ17BtnsMotorYHandlerE2fB         0x2007d14b   Section        1  main.o(.data__ZZ17BtnsMotorYHandlerE2fB)
    .data__ZZ17BtnsMotorZHandlerE2fB         0x2007d14c   Section        1  main.o(.data__ZZ17BtnsMotorZHandlerE2fB)
    .data__ZZ20BtnAxisSwitchHandlerE1f       0x2007d14d   Section        1  main.o(.data__ZZ20BtnAxisSwitchHandlerE1f)
    .data__ZZ9HTCorrFrzE2f2                  0x2007d14e   Section        1  main.o(.data__ZZ9HTCorrFrzE2f2)
    .bss                                     0x2007d150   Section      320  msg.o(.bss)
    .bss                                     0x2007d290   Section      736  virtualpins.o(.bss)
    .bss                                     0x2007d570   Section     3306  queue.o(.bss)
    .bss                                     0x2007e25a   Section      265  u0packets.o(.bss)
    .bss                                     0x2007e363   Section      255  u1packets.o(.bss)
    .bss                                     0x2007e464   Section     8200  regs.o(.bss)
    .bss                                     0x20080470   Section      128  motor_x.o(.bss)
    .bss                                     0x200804f0   Section      128  motor_z.o(.bss)
    .bss                                     0x20080570   Section       96  libspace.o(.bss)
    HEAP                                     0x200805d0   Section     2048  startup_lpc17xx.o(HEAP)
    Heap_Mem                                 0x200805d0   Data        2048  startup_lpc17xx.o(HEAP)
    STACK                                    0x20080dd0   Section     1536  startup_lpc17xx.o(STACK)
    Stack_Mem                                0x20080dd0   Data        1536  startup_lpc17xx.o(STACK)
    __initial_sp                             0x200813d0   Data           0  startup_lpc17xx.o(STACK)

    Global Symbols

    Symbol Name                              Value     Ov Type        Size  Object(Section)

    BuildAttributes$$THM_ISAv4$P$D$K$B$S$PE$A:L22UL41UL21$X:L11$S22US41US21$IEEE1$IW$USESV6$~STKCKD$USESV7$~SHL$OTIME$ROPI$IEEEX$EBA8$UX$STANDARDLIB$REQ8$EABIv2 0x00000000   Number         0  anon$$obj.o ABSOLUTE
    __ARM_use_no_argv                        0x00000000   Number         0  main.o ABSOLUTE
    _printf_flags                            0x00000000   Number         0  printf_stubs.o ABSOLUTE
    _printf_return_value                     0x00000000   Number         0  printf_stubs.o ABSOLUTE
    _printf_sizespec                         0x00000000   Number         0  printf_stubs.o ABSOLUTE
    _printf_widthprec                        0x00000000   Number         0  printf_stubs.o ABSOLUTE
    __ARM_exceptions_init                     - Undefined Weak Reference
    __alloca_initialize                       - Undefined Weak Reference
    __arm_preinit_                            - Undefined Weak Reference
    __cpp_initialize__aeabi_                  - Undefined Weak Reference
    __cxa_finalize                            - Undefined Weak Reference
    __sigvec_lookup                           - Undefined Weak Reference
    _atexit_init                              - Undefined Weak Reference
    _call_atexit_fns                          - Undefined Weak Reference
    _clock_init                               - Undefined Weak Reference
    _fp_trap_init                             - Undefined Weak Reference
    _fp_trap_shutdown                         - Undefined Weak Reference
    _get_lc_collate                           - Undefined Weak Reference
    _get_lc_monetary                          - Undefined Weak Reference
    _get_lc_time                              - Undefined Weak Reference
    _getenv_init                              - Undefined Weak Reference
    _handle_redirection                       - Undefined Weak Reference
    _init_alloc                               - Undefined Weak Reference
    _init_user_alloc                          - Undefined Weak Reference
    _initio                                   - Undefined Weak Reference
    _printf_fp_hex                            - Undefined Weak Reference
    _printf_mbtowc                            - Undefined Weak Reference
    _printf_wc                                - Undefined Weak Reference
    _rand_init                                - Undefined Weak Reference
    _signal_finish                            - Undefined Weak Reference
    _signal_init                              - Undefined Weak Reference
    _terminate_alloc                          - Undefined Weak Reference
    _terminate_user_alloc                     - Undefined Weak Reference
    _terminateio                              - Undefined Weak Reference
    __Vectors                                0x00002000   Data           4  startup_lpc17xx.o(RESET)
    __main                                   0x000020cd   Thumb Code     8  __main.o(!!!main)
    __scatterload                            0x000020d5   Thumb Code     0  __scatter.o(!!!scatter)
    __scatterload_rt2                        0x000020d5   Thumb Code    44  __scatter.o(!!!scatter)
    __scatterload_rt2_thumb_only             0x000020d5   Thumb Code     0  __scatter.o(!!!scatter)
    __scatterload_null                       0x000020e3   Thumb Code     0  __scatter.o(!!!scatter)
    __decompress                             0x00002109   Thumb Code   100  __dclz77c.o(!!dclz77c)
    __decompress2                            0x00002109   Thumb Code     0  __dclz77c.o(!!dclz77c)
    __scatterload_zeroinit                   0x0000216d   Thumb Code    28  __scatter_zi.o(!!handler_zi)
    _printf_n                                0x00002189   Thumb Code     0  _printf_n.o(.ARM.Collect$$_printf_percent$$00000001)
    _printf_percent                          0x00002189   Thumb Code     0  _printf_percent.o(.ARM.Collect$$_printf_percent$$00000000)
    _printf_p                                0x0000218f   Thumb Code     0  _printf_p.o(.ARM.Collect$$_printf_percent$$00000002)
    _printf_f                                0x00002195   Thumb Code     0  _printf_f.o(.ARM.Collect$$_printf_percent$$00000003)
    _printf_e                                0x0000219b   Thumb Code     0  _printf_e.o(.ARM.Collect$$_printf_percent$$00000004)
    _printf_g                                0x000021a1   Thumb Code     0  _printf_g.o(.ARM.Collect$$_printf_percent$$00000005)
    _printf_a                                0x000021a7   Thumb Code     0  _printf_a.o(.ARM.Collect$$_printf_percent$$00000006)
    _printf_ll                               0x000021ad   Thumb Code     0  _printf_ll.o(.ARM.Collect$$_printf_percent$$00000007)
    _printf_i                                0x000021b7   Thumb Code     0  _printf_i.o(.ARM.Collect$$_printf_percent$$00000008)
    _printf_d                                0x000021bd   Thumb Code     0  _printf_d.o(.ARM.Collect$$_printf_percent$$00000009)
    _printf_u                                0x000021c3   Thumb Code     0  _printf_u.o(.ARM.Collect$$_printf_percent$$0000000A)
    _printf_o                                0x000021c9   Thumb Code     0  _printf_o.o(.ARM.Collect$$_printf_percent$$0000000B)
    _printf_x                                0x000021cf   Thumb Code     0  _printf_x.o(.ARM.Collect$$_printf_percent$$0000000C)
    _printf_lli                              0x000021d5   Thumb Code     0  _printf_lli.o(.ARM.Collect$$_printf_percent$$0000000D)
    _printf_lld                              0x000021db   Thumb Code     0  _printf_lld.o(.ARM.Collect$$_printf_percent$$0000000E)
    _printf_llu                              0x000021e1   Thumb Code     0  _printf_llu.o(.ARM.Collect$$_printf_percent$$0000000F)
    _printf_llo                              0x000021e7   Thumb Code     0  _printf_llo.o(.ARM.Collect$$_printf_percent$$00000010)
    _printf_llx                              0x000021ed   Thumb Code     0  _printf_llx.o(.ARM.Collect$$_printf_percent$$00000011)
    _printf_l                                0x000021f3   Thumb Code     0  _printf_l.o(.ARM.Collect$$_printf_percent$$00000012)
    _printf_c                                0x000021fd   Thumb Code     0  _printf_c.o(.ARM.Collect$$_printf_percent$$00000013)
    _printf_s                                0x00002203   Thumb Code     0  _printf_s.o(.ARM.Collect$$_printf_percent$$00000014)
    _printf_lc                               0x00002209   Thumb Code     0  _printf_lc.o(.ARM.Collect$$_printf_percent$$00000015)
    _printf_ls                               0x0000220f   Thumb Code     0  _printf_ls.o(.ARM.Collect$$_printf_percent$$00000016)
    _printf_percent_end                      0x00002215   Thumb Code     0  _printf_percent_end.o(.ARM.Collect$$_printf_percent$$00000017)
    __rt_lib_init                            0x00002219   Thumb Code     0  libinit.o(.ARM.Collect$$libinit$$00000000)
    __rt_lib_init_fp_1                       0x0000221b   Thumb Code     0  libinit2.o(.ARM.Collect$$libinit$$00000002)
    __rt_lib_init_heap_1                     0x0000221b   Thumb Code     0  libinit2.o(.ARM.Collect$$libinit$$0000000A)
    __rt_lib_init_lc_common                  0x0000221b   Thumb Code     0  libinit2.o(.ARM.Collect$$libinit$$0000000F)
    __rt_lib_init_preinit_1                  0x0000221b   Thumb Code     0  libinit2.o(.ARM.Collect$$libinit$$00000004)
    __rt_lib_init_rand_1                     0x0000221b   Thumb Code     0  libinit2.o(.ARM.Collect$$libinit$$0000000E)
    __rt_lib_init_user_alloc_1               0x0000221b   Thumb Code     0  libinit2.o(.ARM.Collect$$libinit$$0000000C)
    __rt_lib_init_lc_collate_1               0x00002221   Thumb Code     0  libinit2.o(.ARM.Collect$$libinit$$00000011)
    __rt_lib_init_lc_ctype_2                 0x00002221   Thumb Code     0  libinit2.o(.ARM.Collect$$libinit$$00000012)
    __rt_lib_init_lc_ctype_1                 0x0000222d   Thumb Code     0  libinit2.o(.ARM.Collect$$libinit$$00000013)
    __rt_lib_init_lc_monetary_1              0x0000222d   Thumb Code     0  libinit2.o(.ARM.Collect$$libinit$$00000015)
    __rt_lib_init_lc_numeric_2               0x0000222d   Thumb Code     0  libinit2.o(.ARM.Collect$$libinit$$00000016)
    __rt_lib_init_alloca_1                   0x00002237   Thumb Code     0  libinit2.o(.ARM.Collect$$libinit$$0000002E)
    __rt_lib_init_argv_1                     0x00002237   Thumb Code     0  libinit2.o(.ARM.Collect$$libinit$$0000002C)
    __rt_lib_init_atexit_1                   0x00002237   Thumb Code     0  libinit2.o(.ARM.Collect$$libinit$$0000001B)
    __rt_lib_init_clock_1                    0x00002237   Thumb Code     0  libinit2.o(.ARM.Collect$$libinit$$00000021)
    __rt_lib_init_cpp_1                      0x00002237   Thumb Code     0  libinit2.o(.ARM.Collect$$libinit$$00000032)
    __rt_lib_init_exceptions_1               0x00002237   Thumb Code     0  libinit2.o(.ARM.Collect$$libinit$$00000030)
    __rt_lib_init_fp_trap_1                  0x00002237   Thumb Code     0  libinit2.o(.ARM.Collect$$libinit$$0000001F)
    __rt_lib_init_getenv_1                   0x00002237   Thumb Code     0  libinit2.o(.ARM.Collect$$libinit$$00000023)
    __rt_lib_init_lc_numeric_1               0x00002237   Thumb Code     0  libinit2.o(.ARM.Collect$$libinit$$00000017)
    __rt_lib_init_lc_time_1                  0x00002237   Thumb Code     0  libinit2.o(.ARM.Collect$$libinit$$00000019)
    __rt_lib_init_return                     0x00002237   Thumb Code     0  libinit2.o(.ARM.Collect$$libinit$$00000033)
    __rt_lib_init_signal_1                   0x00002237   Thumb Code     0  libinit2.o(.ARM.Collect$$libinit$$0000001D)
    __rt_lib_init_stdio_1                    0x00002237   Thumb Code     0  libinit2.o(.ARM.Collect$$libinit$$00000025)
    __rt_lib_shutdown                        0x00002239   Thumb Code     0  libshutdown.o(.ARM.Collect$$libshutdown$$00000000)
    __rt_lib_shutdown_cpp_1                  0x0000223b   Thumb Code     0  libshutdown2.o(.ARM.Collect$$libshutdown$$00000002)
    __rt_lib_shutdown_fp_trap_1              0x0000223b   Thumb Code     0  libshutdown2.o(.ARM.Collect$$libshutdown$$00000007)
    __rt_lib_shutdown_heap_1                 0x0000223b   Thumb Code     0  libshutdown2.o(.ARM.Collect$$libshutdown$$0000000F)
    __rt_lib_shutdown_return                 0x0000223b   Thumb Code     0  libshutdown2.o(.ARM.Collect$$libshutdown$$00000010)
    __rt_lib_shutdown_signal_1               0x0000223b   Thumb Code     0  libshutdown2.o(.ARM.Collect$$libshutdown$$0000000A)
    __rt_lib_shutdown_stdio_1                0x0000223b   Thumb Code     0  libshutdown2.o(.ARM.Collect$$libshutdown$$00000004)
    __rt_lib_shutdown_user_alloc_1           0x0000223b   Thumb Code     0  libshutdown2.o(.ARM.Collect$$libshutdown$$0000000C)
    __rt_entry                               0x0000223d   Thumb Code     0  __rtentry.o(.ARM.Collect$$rtentry$$00000000)
    __rt_entry_presh_1                       0x0000223d   Thumb Code     0  __rtentry2.o(.ARM.Collect$$rtentry$$00000002)
    __rt_entry_sh                            0x0000223d   Thumb Code     0  __rtentry4.o(.ARM.Collect$$rtentry$$00000004)
    __rt_entry_li                            0x00002243   Thumb Code     0  __rtentry2.o(.ARM.Collect$$rtentry$$0000000A)
    __rt_entry_postsh_1                      0x00002243   Thumb Code     0  __rtentry2.o(.ARM.Collect$$rtentry$$00000009)
    __rt_entry_main                          0x00002247   Thumb Code     0  __rtentry2.o(.ARM.Collect$$rtentry$$0000000D)
    __rt_entry_postli_1                      0x00002247   Thumb Code     0  __rtentry2.o(.ARM.Collect$$rtentry$$0000000C)
    __rt_exit                                0x0000224f   Thumb Code     0  rtexit.o(.ARM.Collect$$rtexit$$00000000)
    __rt_exit_ls                             0x00002251   Thumb Code     0  rtexit2.o(.ARM.Collect$$rtexit$$00000003)
    __rt_exit_prels_1                        0x00002251   Thumb Code     0  rtexit2.o(.ARM.Collect$$rtexit$$00000002)
    __rt_exit_exit                           0x00002255   Thumb Code     0  rtexit2.o(.ARM.Collect$$rtexit$$00000004)
    boot_jump                                0x0000225d   Thumb Code     8  sbl_iap.o(.emb_text)
    Reset_Handler                            0x00002265   Thumb Code     8  startup_lpc17xx.o(.text)
    ADC_IRQHandler                           0x0000227f   Thumb Code     0  startup_lpc17xx.o(.text)
    BOD_IRQHandler                           0x0000227f   Thumb Code     0  startup_lpc17xx.o(.text)
    CANActivity_IRQHandler                   0x0000227f   Thumb Code     0  startup_lpc17xx.o(.text)
    CAN_IRQHandler                           0x0000227f   Thumb Code     0  startup_lpc17xx.o(.text)
    DMA_IRQHandler                           0x0000227f   Thumb Code     0  startup_lpc17xx.o(.text)
    EINT0_IRQHandler                         0x0000227f   Thumb Code     0  startup_lpc17xx.o(.text)
    EINT1_IRQHandler                         0x0000227f   Thumb Code     0  startup_lpc17xx.o(.text)
    EINT2_IRQHandler                         0x0000227f   Thumb Code     0  startup_lpc17xx.o(.text)
    EINT3_IRQHandler                         0x0000227f   Thumb Code     0  startup_lpc17xx.o(.text)
    ENET_IRQHandler                          0x0000227f   Thumb Code     0  startup_lpc17xx.o(.text)
    I2C0_IRQHandler                          0x0000227f   Thumb Code     0  startup_lpc17xx.o(.text)
    I2C1_IRQHandler                          0x0000227f   Thumb Code     0  startup_lpc17xx.o(.text)
    I2C2_IRQHandler                          0x0000227f   Thumb Code     0  startup_lpc17xx.o(.text)
    I2S_IRQHandler                           0x0000227f   Thumb Code     0  startup_lpc17xx.o(.text)
    MCPWM_IRQHandler                         0x0000227f   Thumb Code     0  startup_lpc17xx.o(.text)
    PLL0_IRQHandler                          0x0000227f   Thumb Code     0  startup_lpc17xx.o(.text)
    PLL1_IRQHandler                          0x0000227f   Thumb Code     0  startup_lpc17xx.o(.text)
    PWM1_IRQHandler                          0x0000227f   Thumb Code     0  startup_lpc17xx.o(.text)
    QEI_IRQHandler                           0x0000227f   Thumb Code     0  startup_lpc17xx.o(.text)
    RIT_IRQHandler                           0x0000227f   Thumb Code     0  startup_lpc17xx.o(.text)
    RTC_IRQHandler                           0x0000227f   Thumb Code     0  startup_lpc17xx.o(.text)
    SPI_IRQHandler                           0x0000227f   Thumb Code     0  startup_lpc17xx.o(.text)
    SSP0_IRQHandler                          0x0000227f   Thumb Code     0  startup_lpc17xx.o(.text)
    SSP1_IRQHandler                          0x0000227f   Thumb Code     0  startup_lpc17xx.o(.text)
    UART2_IRQHandler                         0x0000227f   Thumb Code     0  startup_lpc17xx.o(.text)
    UART3_IRQHandler                         0x0000227f   Thumb Code     0  startup_lpc17xx.o(.text)
    USBActivity_IRQHandler                   0x0000227f   Thumb Code     0  startup_lpc17xx.o(.text)
    USB_IRQHandler                           0x0000227f   Thumb Code     0  startup_lpc17xx.o(.text)
    WDT_IRQHandler                           0x0000227f   Thumb Code     0  startup_lpc17xx.o(.text)
    __user_initial_stackheap                 0x00002281   Thumb Code     0  startup_lpc17xx.o(.text)
    SystemCoreClockUpdate                    0x000022a5   Thumb Code   186  system_lpc17xx.o(.text)
    SystemInit                               0x0000235f   Thumb Code   144  system_lpc17xx.o(.text)
    CLKPWR_SetPCLKDiv                        0x0000241d   Thumb Code    84  lpc17xx_clkpwr.o(.text)
    CLKPWR_GetPCLKSEL                        0x00002471   Thumb Code    26  lpc17xx_clkpwr.o(.text)
    CLKPWR_GetPCLK                           0x0000248b   Thumb Code    38  lpc17xx_clkpwr.o(.text)
    CLKPWR_ConfigPPWR                        0x000024b1   Thumb Code    34  lpc17xx_clkpwr.o(.text)
    CLKPWR_Sleep                             0x000024d3   Thumb Code    12  lpc17xx_clkpwr.o(.text)
    CLKPWR_DeepSleep                         0x000024df   Thumb Code    18  lpc17xx_clkpwr.o(.text)
    CLKPWR_PowerDown                         0x000024f1   Thumb Code    18  lpc17xx_clkpwr.o(.text)
    CLKPWR_DeepPowerDown                     0x00002503   Thumb Code    18  lpc17xx_clkpwr.o(.text)
    PINSEL_ConfigTraceFunc                   0x00002525   Thumb Code    28  lpc17xx_pinsel.o(.text)
    PINSEL_SetI2C0Pins                       0x00002541   Thumb Code    16  lpc17xx_pinsel.o(.text)
    PINSEL_ConfigPin                         0x00002551   Thumb Code   118  lpc17xx_pinsel.o(.text)
    UART_Init                                0x0000270d   Thumb Code   286  lpc17xx_uart.o(.text)
    UART_TxCmd                               0x0000282b   Thumb Code    26  lpc17xx_uart.o(.text)
    UART_DeInit                              0x00002845   Thumb Code    74  lpc17xx_uart.o(.text)
    UART_ConfigStructInit                    0x0000288f   Thumb Code    18  lpc17xx_uart.o(.text)
    UART_SendByte                            0x000028a1   Thumb Code     6  lpc17xx_uart.o(.text)
    UART_ReceiveByte                         0x000028a7   Thumb Code     6  lpc17xx_uart.o(.text)
    UART_Send                                0x000028ad   Thumb Code    22  lpc17xx_uart.o(.text)
    UART0_Send                               0x000028c3   Thumb Code    18  lpc17xx_uart.o(.text)
    UART1_Send                               0x000028d5   Thumb Code    18  lpc17xx_uart.o(.text)
    UART_Receive                             0x000028e7   Thumb Code    82  lpc17xx_uart.o(.text)
    UART_ForceBreak                          0x00002939   Thumb Code    12  lpc17xx_uart.o(.text)
    UART_IntConfig                           0x00002945   Thumb Code    84  lpc17xx_uart.o(.text)
    UART_GetLineStatus                       0x00002999   Thumb Code    14  lpc17xx_uart.o(.text)
    UART_GetIntId                            0x000029a7   Thumb Code    10  lpc17xx_uart.o(.text)
    UART_CheckBusy                           0x000029b1   Thumb Code    32  lpc17xx_uart.o(.text)
    UART_FIFOConfig                          0x000029d1   Thumb Code    64  lpc17xx_uart.o(.text)
    UART_FIFOConfigStructInit                0x00002a11   Thumb Code    14  lpc17xx_uart.o(.text)
    UART_ABCmd                               0x00002a1f   Thumb Code   102  lpc17xx_uart.o(.text)
    UART_ABClearIntPending                   0x00002a85   Thumb Code    10  lpc17xx_uart.o(.text)
    UART_IrDAInvtInputCmd                    0x00002a8f   Thumb Code    30  lpc17xx_uart.o(.text)
    UART_IrDACmd                             0x00002aad   Thumb Code    22  lpc17xx_uart.o(.text)
    UART_IrDAPulseDivConfig                  0x00002ac3   Thumb Code    24  lpc17xx_uart.o(.text)
    UART_FullModemForcePinState              0x00002adb   Thumb Code    36  lpc17xx_uart.o(.text)
    UART_FullModemConfigMode                 0x00002aff   Thumb Code    42  lpc17xx_uart.o(.text)
    UART_FullModemGetStatus                  0x00002b29   Thumb Code     4  lpc17xx_uart.o(.text)
    UART_RS485Config                         0x00002b2d   Thumb Code    82  lpc17xx_uart.o(.text)
    UART_RS485ReceiverCmd                    0x00002b7f   Thumb Code    22  lpc17xx_uart.o(.text)
    UART_RS485Send                           0x00002b95   Thumb Code    46  lpc17xx_uart.o(.text)
    UART_RS485SendSlvAddr                    0x00002bc3   Thumb Code    14  lpc17xx_uart.o(.text)
    UART_RS485SendData                       0x00002bd1   Thumb Code     4  lpc17xx_uart.o(.text)
    TIM_GetIntStatus                         0x00002bd9   Thumb Code    16  lpc17xx_timer.o(.text)
    TIM_GetIntCaptureStatus                  0x00002be9   Thumb Code    18  lpc17xx_timer.o(.text)
    TIM_ClearIntPending                      0x00002bfb   Thumb Code     8  lpc17xx_timer.o(.text)
    TIM_ClearIntCapturePending               0x00002c03   Thumb Code    10  lpc17xx_timer.o(.text)
    TIM_ConfigStructInit                     0x00002c0d   Thumb Code    16  lpc17xx_timer.o(.text)
    TIM_Init                                 0x00002c1d   Thumb Code   292  lpc17xx_timer.o(.text)
    TIM_DeInit                               0x00002d41   Thumb Code    54  lpc17xx_timer.o(.text)
    TIM_Cmd                                  0x00002d77   Thumb Code    20  lpc17xx_timer.o(.text)
    TIM_ResetCounter                         0x00002d8b   Thumb Code    18  lpc17xx_timer.o(.text)
    TIM_ConfigMatch                          0x00002d9d   Thumb Code   162  lpc17xx_timer.o(.text)
    TIM_UpdateMatchValue                     0x00002e3f   Thumb Code    32  lpc17xx_timer.o(.text)
    TIM_ConfigCapture                        0x00002e5f   Thumb Code    86  lpc17xx_timer.o(.text)
    TIM_GetCaptureValue                      0x00002eb5   Thumb Code    10  lpc17xx_timer.o(.text)
    mbSetSpeed                               0x00002ed1   Thumb Code    80  modbus.o(.text)
    mbSetHandler                             0x00002f21   Thumb Code    16  modbus.o(.text)
    swap                                     0x00002f31   Thumb Code    10  modbus.o(.text)
    CRC16                                    0x00002f3b   Thumb Code    38  modbus.o(.text)
    mbCheckSum                               0x00002f61   Thumb Code    40  modbus.o(.text)
    mbRecvBuffer                             0x00002f89   Thumb Code    60  modbus.o(.text)
    mbIdle                                   0x00002fc5   Thumb Code   150  modbus.o(.text)
    mbByteToPack                             0x0000305b   Thumb Code    32  modbus.o(.text)
    mbWordToPack                             0x0000307b   Thumb Code    62  modbus.o(.text)
    mbWordToPackNoSwap                       0x000030b9   Thumb Code    54  modbus.o(.text)
    mbBufferToPack                           0x000030ef   Thumb Code    52  modbus.o(.text)
    mbPackToQueue                            0x00003123   Thumb Code    20  modbus.o(.text)
    mbCmd485                                 0x00003137   Thumb Code    48  modbus.o(.text)
    mbInsPackToQueue                         0x00003167   Thumb Code    22  modbus.o(.text)
    mbInsCmd485                              0x0000317d   Thumb Code    54  modbus.o(.text)
    mbSendPack                               0x000031b3   Thumb Code   100  modbus.o(.text)
    FS_Init                                  0x00003255   Thumb Code   214  fs.o(.text)
    FS_StrSymbolsValid                       0x0000332b   Thumb Code    68  fs.o(.text)
    FS_GetNameAndType                        0x0000336f   Thumb Code   112  fs.o(.text)
    FS_GetFullName                           0x000033df   Thumb Code   140  fs.o(.text)
    FS_FileUseFCS                            0x0000346b   Thumb Code    62  fs.o(.text)
    FS_FindFreeFNT                           0x000034a9   Thumb Code    80  fs.o(.text)
    FS_FindFileByName                        0x000034f9   Thumb Code    78  fs.o(.text)
    FS_FindFreeCluster                       0x00003547   Thumb Code    42  fs.o(.text)
    FS_GetFreeClustersNum                    0x00003571   Thumb Code    44  fs.o(.text)
    FS_FNTWriteFullName                      0x0000359d   Thumb Code    12  fs.o(.text)
    FS_FNTSetSignature1                      0x000035a9   Thumb Code    10  fs.o(.text)
    FS_ClusterSetFlag                        0x000035b3   Thumb Code    14  fs.o(.text)
    FS_SetNextCluster                        0x000035c1   Thumb Code    24  fs.o(.text)
    FS_GetNextCluster                        0x000035d9   Thumb Code    28  fs.o(.text)
    FS_FlushPageBuffer                       0x000035f5   Thumb Code    34  fs.o(.text)
    FS_GetFreeFCS                            0x00003617   Thumb Code    42  fs.o(.text)
    FS_Assign                                0x00003641   Thumb Code   108  fs.o(.text)
    FS_Rewrite                               0x000036ad   Thumb Code   162  fs.o(.text)
    FS_Append                                0x0000374f   Thumb Code   242  fs.o(.text)
    FS_Reset                                 0x00003841   Thumb Code   186  fs.o(.text)
    FS_WriteByte                             0x000038fb   Thumb Code   150  fs.o(.text)
    FS_ReadByte                              0x00003991   Thumb Code   212  fs.o(.text)
    FS_Write                                 0x00003a65   Thumb Code   210  fs.o(.text)
    FS_Read                                  0x00003b37   Thumb Code   210  fs.o(.text)
    FS_WriteLn                               0x00003c09   Thumb Code    14  fs.o(.text)
    FS_ReadLn                                0x00003c17   Thumb Code   298  fs.o(.text)
    FS_ReadPrevLn                            0x00003d41   Thumb Code    14  fs.o(.text)
    FS_RemainSize                            0x00003d4f   Thumb Code    34  fs.o(.text)
    FS_Seek                                  0x00003d71   Thumb Code   236  fs.o(.text)
    FS_RSeek                                 0x00003e5d   Thumb Code   252  fs.o(.text)
    FS_Close                                 0x00003f59   Thumb Code    98  fs.o(.text)
    FS_Delete                                0x00003fbb   Thumb Code   140  fs.o(.text)
    FS_GetFileInfo                           0x00004047   Thumb Code   242  fs.o(.text)
    FS_Eof                                   0x00004139   Thumb Code    46  fs.o(.text)
    FS_Pos                                   0x00004167   Thumb Code    44  fs.o(.text)
    FS_GetFCSState                           0x00004193   Thumb Code    10  fs.o(.text)
    FS_FCS_Show                              0x0000419d   Thumb Code   690  fs.o(.text)
    FS_Params_Show                           0x0000444f   Thumb Code   312  fs.o(.text)
    Msg                                      0x00004871   Thumb Code    74  msg.o(.text)
    Dump                                     0x000048bb   Thumb Code    56  msg.o(.text)
    SMsg                                     0x000048f3   Thumb Code    62  msg.o(.text)
    bFS_Read                                 0x00004941   Thumb Code    54  bfs.o(.text)
    bFS_ReadLn                               0x00004977   Thumb Code   100  bfs.o(.text)
    FS_ReadPrevByte                          0x000049db   Thumb Code    68  bfs.o(.text)
    bFS_BReadLn                              0x00004a1f   Thumb Code   132  bfs.o(.text)
    bFS_Write                                0x00004aa3   Thumb Code    54  bfs.o(.text)
    InitStream                               0x00004ad9   Thumb Code    22  bfs.o(.text)
    bsFS_ReadLn                              0x00004aef   Thumb Code    54  bfs.o(.text)
    bsFS_BReadLn                             0x00004b25   Thumb Code    54  bfs.o(.text)
    bsFS_Seek                                0x00004b5b   Thumb Code    22  bfs.o(.text)
    bsFS_Pos                                 0x00004b71   Thumb Code     8  bfs.o(.text)
    TI_Handler                               0x00004b79   Thumb Code    50  ti.o(.text)
    Init_TCS                                 0x00004bb1   Thumb Code   198  timers.o(.text)
    InitTimer                                0x00004c77   Thumb Code   170  timers.o(.text)
    InitTimer1                               0x00004d21   Thumb Code   126  timers.o(.text)
    TIMER0_IRQHandler                        0x00004d9f   Thumb Code   304  timers.o(.text)
    TIMER1_IRQHandler                        0x00004ecf   Thumb Code    10  timers.o(.text)
    TIMER2_IRQHandler                        0x00004ed9   Thumb Code   370  timers.o(.text)
    TIMER3_IRQHandler                        0x0000504b   Thumb Code   348  timers.o(.text)
    UART0_IntTransmit                        0x000051e5   Thumb Code   116  uart.o(.text)
    UART0_IntReceive                         0x00005259   Thumb Code    76  uart.o(.text)
    UART0_IntErr                             0x000052a5   Thumb Code     2  uart.o(.text)
    UART0_IRQHandler                         0x000052a7   Thumb Code    50  uart.o(.text)
    StartDelay                               0x000052d9   Thumb Code    18  uart.o(.text)
    UART1_IntTransmit                        0x000052eb   Thumb Code   142  uart.o(.text)
    UART1_IntReceive                         0x00005379   Thumb Code    76  uart.o(.text)
    UART1_IntErr                             0x000053c5   Thumb Code     2  uart.o(.text)
    UART1_IRQHandler                         0x000053c7   Thumb Code    50  uart.o(.text)
    InitFullDupControlSignal                 0x000053f9   Thumb Code    36  uart.o(.text)
    InitHalfDupWaitInterval                  0x0000541d   Thumb Code    12  uart.o(.text)
    InitHalfDupControlSignal                 0x00005429   Thumb Code    24  uart.o(.text)
    UARTx_Init                               0x00005441   Thumb Code   302  uart.o(.text)
    UARTx_PlaceForSend                       0x0000556f   Thumb Code    14  uart.o(.text)
    UARTx_SendBuffer                         0x0000557d   Thumb Code   198  uart.o(.text)
    UART0_SendBuffer                         0x00005643   Thumb Code   106  uart.o(.text)
    UART1_SendBuffer                         0x000056ad   Thumb Code   106  uart.o(.text)
    UARTx_ReadyRecvData                      0x00005717   Thumb Code    14  uart.o(.text)
    UARTx_RecvBuffer                         0x00005725   Thumb Code   114  uart.o(.text)
    UART0_RecvBuffer                         0x00005797   Thumb Code    88  uart.o(.text)
    UART1_RecvBuffer                         0x000057ef   Thumb Code    88  uart.o(.text)
    WaitAndFreeUartLine                      0x00005847   Thumb Code    20  uart.o(.text)
    CRC8                                     0x000058ad   Thumb Code    26  tools.o(.text)
    sqr                                      0x000058c7   Thumb Code     6  tools.o(.text)
    Round                                    0x000058cd   Thumb Code    34  tools.o(.text)
    abss32                                   0x000058ef   Thumb Code     8  tools.o(.text)
    SPI_Init                                 0x000058fd   Thumb Code    98  flash.o(.text)
    SSP0_Init                                0x0000595f   Thumb Code   134  flash.o(.text)
    SSP0_GetStatusFlag                       0x000059e5   Thumb Code     8  flash.o(.text)
    SSP0_SendByte                            0x000059ed   Thumb Code    22  flash.o(.text)
    FLASH_BankSelect                         0x00005a03   Thumb Code    58  flash.o(.text)
    FLASH_BankDeselect                       0x00005a3d   Thumb Code    58  flash.o(.text)
    FLASH_SendByte                           0x00005a77   Thumb Code     2  flash.o(.text)
    FLASH_ReceiveByte                        0x00005a79   Thumb Code     4  flash.o(.text)
    FLASH_GetBankCapacity                    0x00005a7d   Thumb Code    58  flash.o(.text)
    FLASH_Init                               0x00005ab7   Thumb Code    64  flash.o(.text)
    FLASH_GetTotalSize                       0x00005af7   Thumb Code     6  flash.o(.text)
    FLASH_ReadStatusRegister                 0x00005afd   Thumb Code    30  flash.o(.text)
    FLASH_WaitWriting                        0x00005b1b   Thumb Code    36  flash.o(.text)
    FLASH_WaitBulkErasing                    0x00005b3f   Thumb Code    36  flash.o(.text)
    FLASH_AddressInBank                      0x00005b63   Thumb Code    22  flash.o(.text)
    FLASH_BankNumber                         0x00005b79   Thumb Code    20  flash.o(.text)
    FLASH_SectorErase                        0x00005b8d   Thumb Code   130  flash.o(.text)
    FLASH_BulkErase                          0x00005c0f   Thumb Code   134  flash.o(.text)
    FLASH_PageAddress                        0x00005c95   Thumb Code     4  flash.o(.text)
    FLASH_WriteByte                          0x00005c99   Thumb Code   228  flash.o(.text)
    FLASH_ReadByte                           0x00005d7d   Thumb Code    68  flash.o(.text)
    FLASH_PageWrite                          0x00005dc1   Thumb Code   100  flash.o(.text)
    FLASH_Write                              0x00005e25   Thumb Code   108  flash.o(.text)
    FLASH_BankRead                           0x00005e91   Thumb Code    80  flash.o(.text)
    FLASH_Read                               0x00005ee1   Thumb Code   116  flash.o(.text)
    FLASH_test                               0x00005f55   Thumb Code    44  flash.o(.text)
    FLASH_GetBankID                          0x00005f81   Thumb Code    38  flash.o(.text)
    SetPinsErrHandler                        0x00005fb9   Thumb Code     6  virtualpins.o(.text)
    CallErrorHandler                         0x00005fbf   Thumb Code   146  virtualpins.o(.text)
    ClrPin                                   0x00006051   Thumb Code    98  virtualpins.o(.text)
    SetPin                                   0x000060b3   Thumb Code    96  virtualpins.o(.text)
    InitPin                                  0x00006113   Thumb Code   102  virtualpins.o(.text)
    DefaultInitPins                          0x00006179   Thumb Code    50  virtualpins.o(.text)
    FormQPinTable                            0x000061ab   Thumb Code   102  virtualpins.o(.text)
    QSetPin                                  0x00006211   Thumb Code    54  virtualpins.o(.text)
    Q1SetPin                                 0x00006247   Thumb Code    20  virtualpins.o(.text)
    QClrPin                                  0x0000625b   Thumb Code    60  virtualpins.o(.text)
    Q1ClrPin                                 0x00006297   Thumb Code    18  virtualpins.o(.text)
    GetPin                                   0x000062a9   Thumb Code   118  virtualpins.o(.text)
    Drebezg                                  0x0000631f   Thumb Code    96  virtualpins.o(.text)
    QGetPin                                  0x0000637f   Thumb Code   134  virtualpins.o(.text)
    Q1GetPin                                 0x00006405   Thumb Code    34  virtualpins.o(.text)
    ClrGetPin                                0x00006427   Thumb Code    24  virtualpins.o(.text)
    GetPinDir                                0x0000643f   Thumb Code    42  virtualpins.o(.text)
    GetPinInv                                0x00006469   Thumb Code    34  virtualpins.o(.text)
    SetPinInv                                0x0000648b   Thumb Code    88  virtualpins.o(.text)
    InitVirtualPins                          0x000064e3   Thumb Code    20  virtualpins.o(.text)
    InitQueue                                0x00006505   Thumb Code    10  queue.o(.text)
    ProcessingAnswer                         0x0000650f   Thumb Code   492  queue.o(.text)
    ProcessingNoAnswer                       0x000066fb   Thumb Code   172  queue.o(.text)
    DeleteCurrentItem                        0x000067a7   Thumb Code    26  queue.o(.text)
    quPackCount                              0x000067c1   Thumb Code    34  queue.o(.text)
    QueueProcessing                          0x000067e3   Thumb Code   170  queue.o(.text)
    quAddPack                                0x0000688d   Thumb Code   436  queue.o(.text)
    quInsPack                                0x00006a41   Thumb Code   110  queue.o(.text)
    quFixAnswer                              0x00006aaf   Thumb Code    50  queue.o(.text)
    DataToU1                                 0x00006b05   Thumb Code    26  u0packets.o(.text)
    RunBootLoader                            0x00006b1f   Thumb Code    42  u0packets.o(.text)
    ReadRegs                                 0x00006b49   Thumb Code   102  u0packets.o(.text)
    EnableWrite                              0x00006baf   Thumb Code   126  u0packets.o(.text)
    _memcpy                                  0x00006c2d   Thumb Code    26  u0packets.o(.text)
    WriteRegs                                0x00006c47   Thumb Code   140  u0packets.o(.text)
    GoToPoint                                0x00006cd3   Thumb Code    66  u0packets.o(.text)
    LSSendProc                               0x00006d15   Thumb Code   116  u0packets.o(.text)
    QAllocTable                              0x00006d89   Thumb Code    60  u0packets.o(.text)
    pFS_FInfo                                0x00006dc5   Thumb Code   152  u0packets.o(.text)
    pFS_SetFInfo                             0x00006e5d   Thumb Code    36  u0packets.o(.text)
    pFS_Delete                               0x00006e81   Thumb Code    78  u0packets.o(.text)
    pFS_Create                               0x00006ecf   Thumb Code   372  u0packets.o(.text)
    pFS_Rewrite                              0x00007043   Thumb Code   132  u0packets.o(.text)
    pFS_RewriteHandle                        0x000070c7   Thumb Code   102  u0packets.o(.text)
    pFS_Append                               0x0000712d   Thumb Code   118  u0packets.o(.text)
    pFS_Reset                                0x000071a3   Thumb Code   124  u0packets.o(.text)
    pFS_Write                                0x0000721f   Thumb Code    78  u0packets.o(.text)
    bFS_WriteLn                              0x0000726d   Thumb Code    30  u0packets.o(.text)
    pFS_WriteLn                              0x0000728b   Thumb Code    74  u0packets.o(.text)
    pFS_Read                                 0x000072d5   Thumb Code    96  u0packets.o(.text)
    pFS_ReadLn                               0x00007335   Thumb Code   110  u0packets.o(.text)
    pFS_BReadLn                              0x000073a3   Thumb Code   554  u0packets.o(.text)
    pFS_Pos                                  0x000075cd   Thumb Code    58  u0packets.o(.text)
    pFS_Seek                                 0x00007607   Thumb Code    72  u0packets.o(.text)
    pFS_Close                                0x0000764f   Thumb Code    64  u0packets.o(.text)
    pCreateRegsBin                           0x0000768f   Thumb Code    34  u0packets.o(.text)
    pApplyRegsBin                            0x000076b1   Thumb Code    46  u0packets.o(.text)
    pReset                                   0x000076df   Thumb Code    46  u0packets.o(.text)
    pFl_GetUsing                             0x0000770d   Thumb Code    82  u0packets.o(.text)
    pFl_BulkErase                            0x0000775f   Thumb Code    74  u0packets.o(.text)
    pFl_GetTimeouts                          0x000077a9   Thumb Code    30  u0packets.o(.text)
    pFl_SetTimeouts                          0x000077c7   Thumb Code    30  u0packets.o(.text)
    pFl_EraseSector                          0x000077e5   Thumb Code    30  u0packets.o(.text)
    pGetRegInfo                              0x00007803   Thumb Code   140  u0packets.o(.text)
    pGetVersion                              0x0000788f   Thumb Code    48  u0packets.o(.text)
    pGetBusy                                 0x000078bf   Thumb Code    52  u0packets.o(.text)
    pGetBlock                                0x000078f3   Thumb Code    42  u0packets.o(.text)
    pGetTimers                               0x0000791d   Thumb Code   122  u0packets.o(.text)
    pInitZCorr                               0x00007997   Thumb Code    34  u0packets.o(.text)
    pSetPin                                  0x000079b9   Thumb Code    46  u0packets.o(.text)
    SendAddPointPack                         0x000079e7   Thumb Code   302  u0packets.o(.text)
    SendAddPointPackFrz                      0x00007b15   Thumb Code    78  u0packets.o(.text)
    FixPointPackFrz                          0x00007b63   Thumb Code    84  u0packets.o(.text)
    mbFrzPackHandler0                        0x00007bb7   Thumb Code   420  u0packets.o(.text)
    UART0_Thread                             0x00007d5b   Thumb Code    50  u0packets.o(.text)
    mbFrzPackHandler1                        0x00007dcd   Thumb Code    10  u1packets.o(.text)
    UART1_Thread                             0x00007dd7   Thumb Code    54  u1packets.o(.text)
    PinsErrorHandler                         0x00007e15   Thumb Code     2  main.o(.text)
    Test_Handler                             0x00007e17   Thumb Code     2  main.o(.text)
    OutNextTableLine                         0x00007e19   Thumb Code   126  main.o(.text)
    SysTick_Handler                          0x00007e97   Thumb Code     2  main.o(.text)
    NMI_Handler                              0x00007e99   Thumb Code     2  main.o(.text)
    HardFault_Handler                        0x00007e9b   Thumb Code     2  main.o(.text)
    MemManage_Handler                        0x00007e9d   Thumb Code     2  main.o(.text)
    BusFault_Handler                         0x00007e9f   Thumb Code     2  main.o(.text)
    UsageFault_Handler                       0x00007ea1   Thumb Code     2  main.o(.text)
    SVC_Handler                              0x00007ea3   Thumb Code     2  main.o(.text)
    DebugMon_Handler                         0x00007ea5   Thumb Code     2  main.o(.text)
    PendSV_Handler                           0x00007ea7   Thumb Code     2  main.o(.text)
    lpc1768_mpu_config                       0x00007ea9   Thumb Code    84  main.o(.text)
    main                                     0x00007efd   Thumb Code   558  main.o(.text)
    CheckPrgFile                             0x0000820d   Thumb Code   116  handlers.o(.text)
    InitPrgStreams                           0x00008281   Thumb Code   158  handlers.o(.text)
    ReadNextLine                             0x0000831f   Thumb Code    50  handlers.o(.text)
    ReadPrevLine                             0x00008351   Thumb Code    46  handlers.o(.text)
    TryStrToFloat                            0x0000837f   Thumb Code   206  handlers.o(.text)
    IsCmd                                    0x0000844d   Thumb Code    72  handlers.o(.text)
    IsDigits                                 0x00008495   Thumb Code    64  handlers.o(.text)
    ApplyCmd                                 0x000084d5   Thumb Code   584  handlers.o(.text)
    InitFirstBlockFrz                        0x0000871d   Thumb Code    96  handlers.o(.text)
    InitNextBlock                            0x0000877d   Thumb Code    14  handlers.o(.text)
    InitBlockByPrev                          0x0000878b   Thumb Code    94  handlers.o(.text)
    CalcBlockFrz                             0x000087e9   Thumb Code   792  handlers.o(.text)
    CalcBlock                                0x00008b01   Thumb Code   160  handlers.o(.text)
    BackCalcBlock                            0x00008ba1   Thumb Code   114  handlers.o(.text)
    G0Handler                                0x00008c13   Thumb Code   112  handlers.o(.text)
    SetFeed                                  0x00008c83   Thumb Code    78  handlers.o(.text)
    SetSpindle                               0x00008cd1   Thumb Code    84  handlers.o(.text)
    SetCold                                  0x00008d25   Thumb Code    68  handlers.o(.text)
    SetPause                                 0x00008d69   Thumb Code    44  handlers.o(.text)
    RecSetPause                              0x00008d95   Thumb Code    12  handlers.o(.text)
    EndPause                                 0x00008da1   Thumb Code    12  handlers.o(.text)
    SetGoFrz                                 0x00008dad   Thumb Code    76  handlers.o(.text)
    RecSetGo                                 0x00008df9   Thumb Code    32  handlers.o(.text)
    EndGo                                    0x00008e19   Thumb Code     4  handlers.o(.text)
    SetStop                                  0x00008e1d   Thumb Code    76  handlers.o(.text)
    RecSetStop                               0x00008e69   Thumb Code    52  handlers.o(.text)
    EndStop                                  0x00008e9d   Thumb Code     4  handlers.o(.text)
    ErrToMessage                             0x00008ea1   Thumb Code   222  handlers.o(.text)
    BackApplyCmd                             0x00008f7f   Thumb Code   424  handlers.o(.text)
    LineToBlock                              0x00009127   Thumb Code   184  handlers.o(.text)
    TranslateLineToBlock                     0x000091df   Thumb Code    72  handlers.o(.text)
    InitQExBlks                              0x00009227   Thumb Code    10  handlers.o(.text)
    qbCount                                  0x00009231   Thumb Code     8  handlers.o(.text)
    qbIsPlace                                0x00009239   Thumb Code    18  handlers.o(.text)
    qbAddBlock                               0x0000924b   Thumb Code    72  handlers.o(.text)
    qbExtrBlock                              0x00009293   Thumb Code   310  handlers.o(.text)
    qbFirstIndex                             0x000093c9   Thumb Code     8  handlers.o(.text)
    qbIncIndex                               0x000093d1   Thumb Code    20  handlers.o(.text)
    qbLastFreeIndex                          0x000093e5   Thumb Code     8  handlers.o(.text)
    qbGetBlockIndex                          0x000093ed   Thumb Code    16  handlers.o(.text)
    qbDelFirst                               0x000093fd   Thumb Code    48  handlers.o(.text)
    qbFirstBlock                             0x0000942d   Thumb Code    32  handlers.o(.text)
    qbLastBlock                              0x0000944d   Thumb Code    52  handlers.o(.text)
    qbSecondBlock                            0x00009481   Thumb Code    46  handlers.o(.text)
    qbPrevPrgBlock                           0x000094af   Thumb Code    44  handlers.o(.text)
    CheckG1Only                              0x000094db   Thumb Code    52  handlers.o(.text)
    CheckG1FOnly                             0x0000950f   Thumb Code    48  handlers.o(.text)
    CheckAngle                               0x0000953f   Thumb Code   296  handlers.o(.text)
    CheckNextLine                            0x00009667   Thumb Code   146  handlers.o(.text)
    TranslatePrgLine                         0x000096f9   Thumb Code   142  handlers.o(.text)
    TranslatePrg                             0x00009787   Thumb Code   436  handlers.o(.text)
    SearchStopPoint                          0x0000993b   Thumb Code   218  handlers.o(.text)
    CrushWaterHandlerFrz                     0x00009a15   Thumb Code    34  handlers.o(.text)
    sG0HandlerFrz                            0x00009a37   Thumb Code   164  handlers.o(.text)
    RunNextCadrFrzMain                       0x00009adb   Thumb Code   772  handlers.o(.text)
    ZComp                                    0x00009e15   Thumb Code   120  motors.o(.text)
    dXYZImpTodXYZ                            0x00009e8d   Thumb Code   130  motors.o(.text)
    XYZImpToXYZ                              0x00009f0f   Thumb Code   150  motors.o(.text)
    XYZToXYZImp                              0x00009fa5   Thumb Code   170  motors.o(.text)
    InitZComp                                0x0000a04f   Thumb Code  1208  motors.o(.text)
    ShowMC                                   0x0000a507   Thumb Code    12  motors.o(.text)
    ShowMS                                   0x0000a513   Thumb Code    76  motors.o(.text)
    InitMotorStructF                         0x0000a55f   Thumb Code   248  motors.o(.text)
    InitMotorStructALF                       0x0000a657   Thumb Code   206  motors.o(.text)
    UpZ                                      0x0000a725   Thumb Code    48  motors.o(.text)
    RecoveryZfreq                            0x0000a755   Thumb Code   260  motors.o(.text)
    StartMoveZLowSpeed                       0x0000a859   Thumb Code   134  motors.o(.text)
    AddPointFrz                              0x0000a8df   Thumb Code   196  motors.o(.text)
    HTCorr                                   0x0000a9a3   Thumb Code   462  motors.o(.text)
    XYZToXYZImpZcomp                         0x0000ab71   Thumb Code   184  motors.o(.text)
    Brezenheim                               0x0000ac29   Thumb Code   380  motors.o(.text)
    DecItCount                               0x0000ada5   Thumb Code    82  motors.o(.text)
    FMove_HandlerQuick                       0x0000adf7   Thumb Code  1796  motors.o(.text)
    FILoadConf                               0x0000b525   Thumb Code     2  freqinvr.o(.text)
    FIStop                                   0x0000b527   Thumb Code    18  freqinvr.o(.text)
    FIInit                                   0x0000b539   Thumb Code    44  freqinvr.o(.text)
    FIUnlock                                 0x0000b565   Thumb Code     2  freqinvr.o(.text)
    FISetFreq                                0x0000b567   Thumb Code    76  freqinvr.o(.text)
    FISetDir                                 0x0000b5b3   Thumb Code    14  freqinvr.o(.text)
    FIStart                                  0x0000b5c1   Thumb Code    30  freqinvr.o(.text)
    FIQuery                                  0x0000b5df   Thumb Code     2  freqinvr.o(.text)
    FIAnswer                                 0x0000b5e1   Thumb Code     2  freqinvr.o(.text)
    ROHandler                                0x0000b60d   Thumb Code     4  regs.o(.text)
    pCurCadrHandle                           0x0000b611   Thumb Code    10  regs.o(.text)
    pCurCadrHandleFrz                        0x0000b61b   Thumb Code    34  regs.o(.text)
    pDrDelayHandle                           0x0000b63d   Thumb Code    46  regs.o(.text)
    pDCTimeHandle                            0x0000b66b   Thumb Code    46  regs.o(.text)
    pPercVminHandle                          0x0000b699   Thumb Code    46  regs.o(.text)
    PinInt                                   0x0000b6c7   Thumb Code    16  regs.o(.text)
    Cross                                    0x0000b6d7   Thumb Code    66  regs.o(.text)
    SetBase                                  0x0000b719   Thumb Code     8  regs.o(.text)
    SetNewGroup                              0x0000b721   Thumb Code    38  regs.o(.text)
    SetAddr                                  0x0000b747   Thumb Code   192  regs.o(.text)
    LoadRegsFromFile                         0x0000b807   Thumb Code   144  regs.o(.text)
    CloseFilesHandles                        0x0000b897   Thumb Code    50  regs.o(.text)
    SaveRegs                                 0x0000b8c9   Thumb Code    90  regs.o(.text)
    SaveRegsNoMes                            0x0000b923   Thumb Code    52  regs.o(.text)
    XPositOnHandle                           0x0000b957   Thumb Code    22  regs.o(.text)
    YPositOnHandle                           0x0000b96d   Thumb Code    22  regs.o(.text)
    ZPositOnHandle                           0x0000b983   Thumb Code    22  regs.o(.text)
    pByPassHandle                            0x0000b999   Thumb Code    14  regs.o(.text)
    PrgRunHandleFrz                          0x0000b9a7   Thumb Code    30  regs.o(.text)
    mvcVHandleFrz                            0x0000b9c5   Thumb Code    20  regs.o(.text)
    AllocFrzRegisters                        0x0000b9d9   Thumb Code  4302  regs.o(.text)
    InitFrzRegisters                         0x0000caa7   Thumb Code   788  regs.o(.text)
    InitFrzRegsAfterLoad                     0x0000cdbb   Thumb Code   534  regs.o(.text)
    LoadFrzBackupRegs                        0x0000cfd1   Thumb Code   246  regs.o(.text)
    KPInit                                   0x0000d17d   Thumb Code    90  keypad.o(.text)
    KPQuery                                  0x0000d1d7   Thumb Code    18  keypad.o(.text)
    KPAnswer                                 0x0000d1e9   Thumb Code   128  keypad.o(.text)
    MotorX_Handler                           0x0000d271   Thumb Code   182  motor_x.o(.text)
    MotorY_Handler                           0x0000d345   Thumb Code   200  motor_y.o(.text)
    MotorZ_Handler                           0x0000d429   Thumb Code   182  motor_z.o(.text)
    PWM_Init                                 0x0000d4fd   Thumb Code    34  pwm.o(.text)
    PWM_Start                                0x0000d51f   Thumb Code    14  pwm.o(.text)
    PWM_Stop                                 0x0000d52d   Thumb Code    10  pwm.o(.text)
    PWM_Set                                  0x0000d537   Thumb Code    14  pwm.o(.text)
    __aeabi_uldivmod                         0x0000d54d   Thumb Code     0  lludivv7m.o(.text)
    _ll_udiv                                 0x0000d54d   Thumb Code   238  lludivv7m.o(.text)
    __c89vsprintf                            0x0000d63d   Thumb Code    32  c89vsprintf.o(.text)
    __2sprintf                               0x0000d661   Thumb Code    38  __2sprintf.o(.text)
    _printf_pre_padding                      0x0000d68d   Thumb Code    44  _printf_pad.o(.text)
    _printf_post_padding                     0x0000d6b9   Thumb Code    34  _printf_pad.o(.text)
    _printf_int_dec                          0x0000d6dd   Thumb Code   104  _printf_dec.o(.text)
    _printf_longlong_hex                     0x0000d755   Thumb Code    86  _printf_hex_int_ll_ptr.o(.text)
    _printf_int_hex                          0x0000d7ab   Thumb Code    28  _printf_hex_int_ll_ptr.o(.text)
    _printf_ll_hex                           0x0000d7c7   Thumb Code    12  _printf_hex_int_ll_ptr.o(.text)
    _printf_hex_ptr                          0x0000d7d3   Thumb Code    18  _printf_hex_int_ll_ptr.o(.text)
    __printf                                 0x0000d7e9   Thumb Code   388  __printf_flags_ss_wp.o(.text)
    strcpy                                   0x0000d971   Thumb Code    72  strcpy.o(.text)
    strlen                                   0x0000d9b9   Thumb Code    62  strlen.o(.text)
    __aeabi_memcpy                           0x0000d9f7   Thumb Code     0  rt_memcpy_v6.o(.text)
    __rt_memcpy                              0x0000d9f7   Thumb Code   138  rt_memcpy_v6.o(.text)
    _memcpy_lastbytes                        0x0000da5d   Thumb Code     0  rt_memcpy_v6.o(.text)
    __aeabi_memcpy4                          0x0000da81   Thumb Code     0  rt_memcpy_w.o(.text)
    __aeabi_memcpy8                          0x0000da81   Thumb Code     0  rt_memcpy_w.o(.text)
    __rt_memcpy_w                            0x0000da81   Thumb Code   100  rt_memcpy_w.o(.text)
    _memcpy_lastbytes_aligned                0x0000dac9   Thumb Code     0  rt_memcpy_w.o(.text)
    __aeabi_memclr                           0x0000dae5   Thumb Code     0  rt_memclr.o(.text)
    __rt_memclr                              0x0000dae5   Thumb Code    68  rt_memclr.o(.text)
    _memset                                  0x0000dae9   Thumb Code     0  rt_memclr.o(.text)
    __aeabi_memclr4                          0x0000db29   Thumb Code     0  rt_memclr_w.o(.text)
    __aeabi_memclr8                          0x0000db29   Thumb Code     0  rt_memclr_w.o(.text)
    __rt_memclr_w                            0x0000db29   Thumb Code    78  rt_memclr_w.o(.text)
    _memset_w                                0x0000db2d   Thumb Code     0  rt_memclr_w.o(.text)
    strcmp                                   0x0000db79   Thumb Code   128  strcmpv7m.o(.text)
    __use_two_region_memory                  0x0000dbf9   Thumb Code     2  heapauxi.o(.text)
    __rt_heap_escrow$2region                 0x0000dbfb   Thumb Code     2  heapauxi.o(.text)
    __rt_heap_expand$2region                 0x0000dbfd   Thumb Code     2  heapauxi.o(.text)
    __read_errno                             0x0000dbff   Thumb Code    10  _rserrno.o(.text)
    __set_errno                              0x0000dc09   Thumb Code    12  _rserrno.o(.text)
    _printf_truncate_signed                  0x0000dc15   Thumb Code    18  _printf_truncate.o(.text)
    _printf_truncate_unsigned                0x0000dc27   Thumb Code    18  _printf_truncate.o(.text)
    _printf_str                              0x0000dc39   Thumb Code    82  _printf_str.o(.text)
    _printf_int_common                       0x0000dc8b   Thumb Code   178  _printf_intcommon.o(.text)
    _printf_charcount                        0x0000dd3d   Thumb Code    40  _printf_charcount.o(.text)
    __lib_sel_fp_printf                      0x0000dd65   Thumb Code     2  _printf_fp_dec.o(.text)
    _printf_fp_dec_real                      0x0000df13   Thumb Code   620  _printf_fp_dec.o(.text)
    _printf_char_common                      0x0000e18b   Thumb Code    32  _printf_char_common.o(.text)
    _sputc                                   0x0000e1b1   Thumb Code    10  _sputc.o(.text)
    _printf_wctomb                           0x0000e1bd   Thumb Code   182  _printf_wctomb.o(.text)
    _printf_longlong_dec                     0x0000e279   Thumb Code   108  _printf_longlong_dec.o(.text)
    _printf_longlong_oct                     0x0000e2f5   Thumb Code    68  _printf_oct_int_ll.o(.text)
    _printf_int_oct                          0x0000e339   Thumb Code    24  _printf_oct_int_ll.o(.text)
    _printf_ll_oct                           0x0000e351   Thumb Code    12  _printf_oct_int_ll.o(.text)
    __rt_locale                              0x0000e365   Thumb Code     8  rt_locale_intlibspace.o(.text)
    __aeabi_errno_addr                       0x0000e36d   Thumb Code     8  rt_errno_addr_intlibspace.o(.text)
    __errno$intlibspace                      0x0000e36d   Thumb Code     0  rt_errno_addr_intlibspace.o(.text)
    __rt_errno_addr$intlibspace              0x0000e36d   Thumb Code     0  rt_errno_addr_intlibspace.o(.text)
    _ll_udiv10                               0x0000e375   Thumb Code   138  lludiv10.o(.text)
    _printf_fp_infnan                        0x0000e401   Thumb Code   112  _printf_fp_infnan.o(.text)
    _printf_cs_common                        0x0000e481   Thumb Code    20  _printf_char.o(.text)
    _printf_char                             0x0000e495   Thumb Code    16  _printf_char.o(.text)
    _printf_string                           0x0000e4a5   Thumb Code     8  _printf_char.o(.text)
    _printf_lcs_common                       0x0000e4ad   Thumb Code    20  _printf_wchar.o(.text)
    _printf_wchar                            0x0000e4c1   Thumb Code    16  _printf_wchar.o(.text)
    _printf_wstring                          0x0000e4d1   Thumb Code     8  _printf_wchar.o(.text)
    _btod_etento                             0x0000e4d9   Thumb Code   216  bigflt0.o(.text)
    _wcrtomb                                 0x0000e5b5   Thumb Code    64  _wcrtomb.o(.text)
    __user_libspace                          0x0000e5f5   Thumb Code     8  libspace.o(.text)
    __user_perproc_libspace                  0x0000e5f5   Thumb Code     0  libspace.o(.text)
    __user_perthread_libspace                0x0000e5f5   Thumb Code     0  libspace.o(.text)
    __user_setup_stackheap                   0x0000e5fd   Thumb Code    74  sys_stackheap_outer.o(.text)
    __rt_ctype_table                         0x0000e649   Thumb Code    16  rt_ctype_table.o(.text)
    exit                                     0x0000e659   Thumb Code    18  exit.o(.text)
    _sys_exit                                0x0000e66d   Thumb Code     8  sys_exit.o(.text)
    __I$use$semihosting                      0x0000e679   Thumb Code     0  use_no_semi.o(.text)
    __use_no_semihosting_swi                 0x0000e679   Thumb Code     2  use_no_semi.o(.text)
    __semihosting_library_function           0x0000e67b   Thumb Code     0  indicate_semi.o(.text)
    _btod_d2e                                0x0000e67b   Thumb Code    62  btod.o(CL$$btod_d2e)
    _d2e_denorm_low                          0x0000e6b9   Thumb Code    70  btod.o(CL$$btod_d2e_denorm_low)
    _d2e_norm_op1                            0x0000e6ff   Thumb Code    96  btod.o(CL$$btod_d2e_norm_op1)
    __btod_div_common                        0x0000e75f   Thumb Code   696  btod.o(CL$$btod_div_common)
    _e2e                                     0x0000ea97   Thumb Code   198  btod.o(CL$$btod_e2e)
    _btod_ediv                               0x0000eb5d   Thumb Code    40  btod.o(CL$$btod_ediv)
    _btod_emul                               0x0000eb85   Thumb Code    40  btod.o(CL$$btod_emul)
    __btod_mult_common                       0x0000ebad   Thumb Code   580  btod.o(CL$$btod_mult_common)
    BtnsMotorXHandler                        0x0000edf1   Thumb Code   226  main.o(i.BtnsMotorXHandler)
    BtnsMotorYHandler                        0x0000eeed   Thumb Code   226  main.o(i.BtnsMotorYHandler)
    BtnsMotorZHandler                        0x0000efe9   Thumb Code   226  main.o(i.BtnsMotorZHandler)
    ButtonsToRegs                            0x0000f0e5   Thumb Code   136  main.o(i.ButtonsToRegs)
    CheckPointFrz                            0x0000f18d   Thumb Code   106  main.o(i.CheckPointFrz)
    FormQueue                                0x0000f211   Thumb Code    84  main.o(i.FormQueue)
    HTCheckPointFrz                          0x0000f279   Thumb Code   106  main.o(i.HTCheckPointFrz)
    InitFrzTimers                            0x0000f2fd   Thumb Code   142  main.o(i.InitFrzTimers)
    MoveBtnX                                 0x0000f3b5   Thumb Code  1554  motor_x.o(i.MoveBtnX)
    MoveBtnY                                 0x0000f9cd   Thumb Code  1570  motor_y.o(i.MoveBtnY)
    MoveBtnZ                                 0x0000fff5   Thumb Code  1474  motor_z.o(i.MoveBtnZ)
    MoveByRegs                               0x000105bd   Thumb Code   334  main.o(i.MoveByRegs)
    MovePosX                                 0x00010729   Thumb Code  1156  motor_x.o(i.MovePosX)
    MovePosY                                 0x00010bb9   Thumb Code   936  motor_y.o(i.MovePosY)
    MovePosZ                                 0x00010f89   Thumb Code   914  motor_z.o(i.MovePosZ)
    PositX                                   0x00011345   Thumb Code   538  motor_x.o(i.PositX)
    PositY                                   0x00011595   Thumb Code   560  motor_y.o(i.PositY)
    PositZ                                   0x000117f5   Thumb Code   522  motor_z.o(i.PositZ)
    RecoverBlock                             0x00011a2d   Thumb Code   526  main.o(i.RecoverBlock)
    RunPrgFrz                                0x00011c8d   Thumb Code   224  main.o(i.RunPrgFrz)
    StopPrg                                  0x00011d9d   Thumb Code   186  main.o(i.StopPrg)
    ZZCheckPointFrz                          0x00011e79   Thumb Code   106  main.o(i.ZZCheckPointFrz)
    ZZeroDat                                 0x00011efd   Thumb Code    86  main.o(i.ZZeroDat)
    __ARM_fpclassify                         0x00011f71   Thumb Code    40  fpclassify.o(i.__ARM_fpclassify)
    __kernel_poly                            0x00011f99   Thumb Code   170  poly.o(i.__kernel_poly)
    __mathlib_dbl_infnan                     0x00012043   Thumb Code     6  dunder.o(i.__mathlib_dbl_infnan)
    __mathlib_dbl_invalid                    0x00012049   Thumb Code    12  dunder.o(i.__mathlib_dbl_invalid)
    _is_digit                                0x00012055   Thumb Code    14  __printf_wp.o(i._is_digit)
    acos                                     0x00012065   Thumb Code   574  acos.o(i.acos)
    ceil                                     0x000122e1   Thumb Code   204  ceil.o(i.ceil)
    sqrt                                     0x000123bd   Thumb Code    76  sqrt.o(i.sqrt)
    _get_lc_numeric                          0x00012409   Thumb Code    44  lc_numeric_c.o(locale$$code)
    _get_lc_ctype                            0x00012435   Thumb Code    44  lc_ctype_c.o(locale$$code)
    __aeabi_d2f                              0x00012461   Thumb Code     0  d2f.o(x$fpl$d2f)
    _d2f                                     0x00012461   Thumb Code    98  d2f.o(x$fpl$d2f)
    __aeabi_dadd                             0x000124c5   Thumb Code     0  daddsub_clz.o(x$fpl$dadd)
    _dadd                                    0x000124c5   Thumb Code   332  daddsub_clz.o(x$fpl$dadd)
    __fpl_dcheck_NaN1                        0x00012615   Thumb Code    10  dcheck1.o(x$fpl$dcheck1)
    __fpl_dcmp_Inf                           0x00012625   Thumb Code    24  dcmpi.o(x$fpl$dcmpinf)
    __aeabi_ddiv                             0x0001263d   Thumb Code     0  ddiv.o(x$fpl$ddiv)
    _ddiv                                    0x0001263d   Thumb Code   552  ddiv.o(x$fpl$ddiv)
    __aeabi_d2iz                             0x000128ed   Thumb Code     0  dfix.o(x$fpl$dfix)
    _dfix                                    0x000128ed   Thumb Code    94  dfix.o(x$fpl$dfix)
    __aeabi_d2uiz                            0x0001294d   Thumb Code     0  dfixu.o(x$fpl$dfixu)
    _dfixu                                   0x0001294d   Thumb Code    90  dfixu.o(x$fpl$dfixu)
    __aeabi_i2d                              0x000129a7   Thumb Code     0  dflt_clz.o(x$fpl$dflt)
    _dflt                                    0x000129a7   Thumb Code    46  dflt_clz.o(x$fpl$dflt)
    __aeabi_ui2d                             0x000129d5   Thumb Code     0  dflt_clz.o(x$fpl$dfltu)
    _dfltu                                   0x000129d5   Thumb Code    38  dflt_clz.o(x$fpl$dfltu)
    __aeabi_ul2d                             0x000129fd   Thumb Code     0  dfltll_clz.o(x$fpl$dfltull)
    _ll_uto_d                                0x000129fd   Thumb Code   138  dfltll_clz.o(x$fpl$dfltull)
    __aeabi_cdcmple                          0x00012a89   Thumb Code     0  dleqf.o(x$fpl$dleqf)
    _dcmple                                  0x00012a89   Thumb Code   120  dleqf.o(x$fpl$dleqf)
    __fpl_dcmple_InfNaN                      0x00012aeb   Thumb Code     0  dleqf.o(x$fpl$dleqf)
    __aeabi_dmul                             0x00012b01   Thumb Code     0  dmul.o(x$fpl$dmul)
    _dmul                                    0x00012b01   Thumb Code   332  dmul.o(x$fpl$dmul)
    __fpl_dnaninf                            0x00012c55   Thumb Code   156  dnaninf.o(x$fpl$dnaninf)
    __fpl_dretinf                            0x00012cf1   Thumb Code    12  dretinf.o(x$fpl$dretinf)
    __aeabi_cdrcmple                         0x00012cfd   Thumb Code     0  drleqf.o(x$fpl$drleqf)
    _drcmple                                 0x00012cfd   Thumb Code   108  drleqf.o(x$fpl$drleqf)
    __aeabi_drsub                            0x00012d69   Thumb Code     0  daddsub_clz.o(x$fpl$drsb)
    _drsb                                    0x00012d69   Thumb Code    22  daddsub_clz.o(x$fpl$drsb)
    _dsqrt                                   0x00012d81   Thumb Code   456  dsqrt_noumaal.o(x$fpl$dsqrt)
    __aeabi_dsub                             0x00012f4d   Thumb Code     0  daddsub_clz.o(x$fpl$dsub)
    _dsub                                    0x00012f4d   Thumb Code   464  daddsub_clz.o(x$fpl$dsub)
    __aeabi_f2d                              0x00013121   Thumb Code     0  f2d.o(x$fpl$f2d)
    _f2d                                     0x00013121   Thumb Code    86  f2d.o(x$fpl$f2d)
    __aeabi_fadd                             0x00013179   Thumb Code     0  faddsub_clz.o(x$fpl$fadd)
    _fadd                                    0x00013179   Thumb Code   196  faddsub_clz.o(x$fpl$fadd)
    __fpl_fcmp_Inf                           0x0001323d   Thumb Code    24  fcmpi.o(x$fpl$fcmpinf)
    __aeabi_fdiv                             0x00013255   Thumb Code     0  fdiv.o(x$fpl$fdiv)
    _fdiv                                    0x00013255   Thumb Code   384  fdiv.o(x$fpl$fdiv)
    __aeabi_cfcmpeq                          0x000133d9   Thumb Code     0  feqf.o(x$fpl$feqf)
    _fcmpeq                                  0x000133d9   Thumb Code   104  feqf.o(x$fpl$feqf)
    __aeabi_f2iz                             0x00013441   Thumb Code     0  ffix.o(x$fpl$ffix)
    _ffix                                    0x00013441   Thumb Code    54  ffix.o(x$fpl$ffix)
    __aeabi_i2f                              0x00013479   Thumb Code     0  fflt_clz.o(x$fpl$fflt)
    _fflt                                    0x00013479   Thumb Code    48  fflt_clz.o(x$fpl$fflt)
    __aeabi_ui2f                             0x000134a9   Thumb Code     0  fflt_clz.o(x$fpl$ffltu)
    _ffltu                                   0x000134a9   Thumb Code    38  fflt_clz.o(x$fpl$ffltu)
    __aeabi_cfcmple                          0x000134d1   Thumb Code     0  fleqf.o(x$fpl$fleqf)
    _fcmple                                  0x000134d1   Thumb Code   104  fleqf.o(x$fpl$fleqf)
    __fpl_fcmple_InfNaN                      0x00013523   Thumb Code     0  fleqf.o(x$fpl$fleqf)
    __aeabi_fmul                             0x00013539   Thumb Code     0  fmul.o(x$fpl$fmul)
    _fmul                                    0x00013539   Thumb Code   258  fmul.o(x$fpl$fmul)
    __fpl_fnaninf                            0x0001363b   Thumb Code   140  fnaninf.o(x$fpl$fnaninf)
    __fpl_fretinf                            0x000136c7   Thumb Code    10  fretinf.o(x$fpl$fretinf)
    __aeabi_cfrcmple                         0x000136d1   Thumb Code     0  frleqf.o(x$fpl$frleqf)
    _frcmple                                 0x000136d1   Thumb Code    98  frleqf.o(x$fpl$frleqf)
    __aeabi_frsub                            0x00013733   Thumb Code     0  faddsub_clz.o(x$fpl$frsb)
    _frsb                                    0x00013733   Thumb Code    20  faddsub_clz.o(x$fpl$frsb)
    __aeabi_fsub                             0x00013749   Thumb Code     0  faddsub_clz.o(x$fpl$fsub)
    _fsub                                    0x00013749   Thumb Code   234  faddsub_clz.o(x$fpl$fsub)
    __aeabi_d2ulz                            0x00013835   Thumb Code     0  dfixull.o(x$fpl$llufromd)
    _ll_ufrom_d                              0x00013835   Thumb Code   120  dfixull.o(x$fpl$llufromd)
    _printf_fp_dec                           0x000138ad   Thumb Code     4  printf1.o(x$fpl$printf1)
    __fpl_return_NaN                         0x000138b1   Thumb Code   100  retnan.o(x$fpl$retnan)
    __ARM_scalbn                             0x00013915   Thumb Code    92  scalbn.o(x$fpl$scalbn)
    __fpl_cmpreturn                          0x00013971   Thumb Code    48  trapv.o(x$fpl$trapveneer)
    __I$use$fp                               0x000139a0   Number         0  usenofp.o(x$fpl$usenofp)
    Region$$Table$$Base                      0x00013f38   Number         0  anon$$obj.o(Region$$Table)
    Region$$Table$$Limit                     0x00013f78   Number         0  anon$$obj.o(Region$$Table)
    __ctype                                  0x00013fa1   Data           0  lc_ctype_c.o(locale$$data)
    SystemCoreClock                          0x10000000   Data           4  system_lpc17xx.o(.data)
    mbRDataLen0                              0x10000004   Data           2  modbus.o(.data)
    mbRDataLen1                              0x10000006   Data           2  modbus.o(.data)
    mbSDataLen0                              0x10000008   Data           2  modbus.o(.data)
    mbSDataLen1                              0x1000000a   Data           2  modbus.o(.data)
    mbSFDLen0                                0x1000000c   Data           2  modbus.o(.data)
    mbSFDLen1                                0x1000000e   Data           2  modbus.o(.data)
    mbDelay0                                 0x10000010   Data           2  modbus.o(.data)
    mbDelay1                                 0x10000012   Data           2  modbus.o(.data)
    pPackHandler0                            0x10000014   Data           4  modbus.o(.data)
    pPackHandler1                            0x10000018   Data           4  modbus.o(.data)
    FLASH_BANKS_NUM                          0x1000001c   Data           1  fs.o(.data)
    FS_IS_INITED                             0x1000001d   Data           1  fs.o(.data)
    FS_STATE                                 0x1000001e   Data           1  fs.o(.data)
    SECTORS_NUMBER                           0x10000020   Data           2  fs.o(.data)
    CLUSTERS_PER_SECTOR                      0x10000022   Data           2  fs.o(.data)
    CLUSTERS_NUMBER                          0x10000024   Data           2  fs.o(.data)
    ClusterMAX                               0x10000026   Data           2  fs.o(.data)
    CLUSTER_SIZE                             0x10000028   Data           2  fs.o(.data)
    CATRecordsNumber                         0x1000002a   Data           2  fs.o(.data)
    CATRecordMAX                             0x1000002c   Data           2  fs.o(.data)
    SECTOR_SIZE                              0x10000030   Data           4  fs.o(.data)
    CAT_Size                                 0x10000034   Data           4  fs.o(.data)
    FNTRecordsNumber                         0x10000038   Data           4  fs.o(.data)
    FNTRecordMAX                             0x1000003c   Data           4  fs.o(.data)
    CAT_BASE_ADDRESS                         0x10000040   Data           4  fs.o(.data)
    CLUSTERS_BASE_ADDRESS                    0x10000044   Data           4  fs.o(.data)
    MsgLen                                   0x10000048   Data           2  msg.o(.data)
    vArgs                                    0x1000004c   Data           4  msg.o(.data)
    Table_CRC8                               0x10000050   Data         256  tools.o(.data)
    aPin                                     0x10000150   Data         432  staticpins.o(.data)
    EAddr                                    0x10000300   Data           1  queue.o(.data)
    ECmd                                     0x10000301   Data           1  queue.o(.data)
    ECode                                    0x10000302   Data           1  queue.o(.data)
    Busy                                     0x10000304   Data           1  handlers.o(.data)
    sG0                                      0x10000305   Data           1  handlers.o(.data)
    EndTranslate                             0x10000306   Data           1  handlers.o(.data)
    SPS                                      0x10000307   Data           1  handlers.o(.data)
    eb                                       0x10000308   Data           4  handlers.o(.data)
    X                                        0x1000030c   Data           4  handlers.o(.data)
    Y                                        0x10000310   Data           4  handlers.o(.data)
    Z                                        0x10000314   Data           4  handlers.o(.data)
    pPrgFileName                             0x10000318   Data           4  handlers.o(.data)
    pPrgFileHandle                           0x1000031c   Data           4  handlers.o(.data)
    pPrgLineCount                            0x10000320   Data           4  handlers.o(.data)
    pPrgRun                                  0x10000324   Data           4  handlers.o(.data)
    pRCS                                     0x10000328   Data           4  handlers.o(.data)
    pCurCadr                                 0x1000032c   Data           4  handlers.o(.data)
    pNumReadLine                             0x10000330   Data           4  handlers.o(.data)
    pBlock                                   0x10000334   Data           4  handlers.o(.data)
    pTrAngle                                 0x10000338   Data           4  handlers.o(.data)
    Sr                                       0x1000033c   Data           4  handlers.o(.data)
    Sri                                      0x10000340   Data           4  handlers.o(.data)
    pRunSpPause                              0x10000344   Data           4  handlers.o(.data)
    ppb                                      0x10000348   Data           4  handlers.o(.data)
    nb                                       0x1000034c   Data           4  handlers.o(.data)
    ts                                       0x10000350   Data           8  handlers.o(.data)
    rs                                       0x10000358   Data           8  handlers.o(.data)
    fStartMoveZLowSpeed                      0x10000360   Data           1  motors.o(.data)
    SendPointCount                           0x10000361   Data           1  motors.o(.data)
    ClrF                                     0x10000362   Data           1  motors.o(.data)
    f                                        0x10000363   Data           1  motors.o(.data)
    stepX                                    0x10000364   Data           1  motors.o(.data)
    stepY                                    0x10000365   Data           1  motors.o(.data)
    stepZ                                    0x10000366   Data           1  motors.o(.data)
    Index                                    0x10000368   Data           4  motors.o(.data)
    pX1                                      0x1000036c   Data           4  motors.o(.data)
    pY1                                      0x10000370   Data           4  motors.o(.data)
    pZ1                                      0x10000374   Data           4  motors.o(.data)
    pX2                                      0x10000378   Data           4  motors.o(.data)
    pY2                                      0x1000037c   Data           4  motors.o(.data)
    pZ2                                      0x10000380   Data           4  motors.o(.data)
    pX3                                      0x10000384   Data           4  motors.o(.data)
    pY3                                      0x10000388   Data           4  motors.o(.data)
    pZ3                                      0x1000038c   Data           4  motors.o(.data)
    pfZcomp                                  0x10000390   Data           4  motors.o(.data)
    pA                                       0x10000394   Data           4  motors.o(.data)
    pB                                       0x10000398   Data           4  motors.o(.data)
    pC                                       0x1000039c   Data           4  motors.o(.data)
    pD                                       0x100003a0   Data           4  motors.o(.data)
    dz                                       0x100003a4   Data           4  motors.o(.data)
    SaveZPos                                 0x100003a8   Data           4  motors.o(.data)
    px                                       0x100003ac   Data           4  motors.o(.data)
    py                                       0x100003b0   Data           4  motors.o(.data)
    pz                                       0x100003b4   Data           4  motors.o(.data)
    pHdat                                    0x100003b8   Data           4  motors.o(.data)
    Vct                                      0x100003bc   Data           4  motors.o(.data)
    con                                      0x100003c0   Data           4  motors.o(.data)
    Vin                                      0x100003c4   Data           4  motors.o(.data)
    itc                                      0x100003c8   Data           4  motors.o(.data)
    cm                                       0x100003cc   Data           4  motors.o(.data)
    cc                                       0x100003d0   Data           4  motors.o(.data)
    cd                                       0x100003d4   Data           4  motors.o(.data)
    Tacc                                     0x100003d8   Data           4  motors.o(.data)
    Tdec                                     0x100003dc   Data           4  motors.o(.data)
    Sti                                      0x100003e0   Data           4  motors.o(.data)
    save_mc_Z_FrReq                          0x100003e8   Data           8  motors.o(.data)
    save_mc_Z_FrMax                          0x100003f0   Data           8  motors.o(.data)
    OutAllocTable                            0x100003f8   Data           1  regs.o(.data)
    CurVarIndex                              0x100003fc   Data           4  regs.o(.data)
    vPinsdef                                 0x10000400   Data         108  vpfrz.o(.data)
    pUsesKP485                               0x1000046c   Data           4  keypad.o(.data)
    pAddrKPCtrl                              0x10000470   Data           4  keypad.o(.data)
    pDrDelay                                 0x10000474   Data           4  keypad.o(.data)
    pDCTime                                  0x10000478   Data           4  keypad.o(.data)
    pPercVmin                                0x1000047c   Data           4  keypad.o(.data)
    pZmove                                   0x10000480   Data           4  keypad.o(.data)
    pUnusedmove                              0x10000484   Data           4  keypad.o(.data)
    pAxisSwitch                              0x10000488   Data           4  keypad.o(.data)
    ClrSY                                    0x1000048c   Data           1  motor_y.o(.data)
    Btn5Handler::f                           0x1000048d   Data           1  main.o(.data__ZZ11Btn5HandlerE1f)
    ZZeroDatFrz::f2                          0x1000048e   Data           1  main.o(.data__ZZ11ZZeroDatFrzE2f2)
    CheckPointFrz::f4                        0x1000048f   Data           1  main.o(.data__ZZ13CheckPointFrzE2f4)
    HTCheckPointFrz::f6                      0x10000490   Data           1  main.o(.data__ZZ15HTCheckPointFrzE2f6)
    ZZCheckPointFrz::f6                      0x10000491   Data           1  main.o(.data__ZZ15ZZCheckPointFrzE2f6)
    BtnsMotorXHandler::fD                    0x10000492   Data           1  main.o(.data__ZZ17BtnsMotorXHandlerE2fD)
    BtnsMotorYHandler::fD                    0x10000493   Data           1  main.o(.data__ZZ17BtnsMotorYHandlerE2fD)
    BtnsMotorZHandler::fD                    0x10000494   Data           1  main.o(.data__ZZ17BtnsMotorZHandlerE2fD)
    ByPassFrz::f1                            0x10000495   Data           1  main.o(.data__ZZ9ByPassFrzE2f1)
    mbRBuffer0                               0x10000498   Data        8192  modbus.o(.bss)
    mbRBuffer1                               0x10002498   Data         256  modbus.o(.bss)
    mbSBuffer0                               0x10002598   Data         256  modbus.o(.bss)
    mbSBuffer1                               0x10002698   Data         256  modbus.o(.bss)
    mbSFBuf0                                 0x10002798   Data         256  modbus.o(.bss)
    mbSFBuf1                                 0x10002898   Data         256  modbus.o(.bss)
    pFCSArray                                0x10002998   Data          32  fs.o(.bss)
    FCSArray                                 0x100029b8   Data        2584  fs.o(.bss)
    ti                                       0x100033d0   Data         120  ti.o(.bss)
    time                                     0x10003448   Data         120  ti.o(.bss)
    rb0                                      0x100034c0   Data        1048  uart.o(.bss)
    rb1                                      0x100038d8   Data        1048  uart.o(.bss)
    FLASH_BankCapacity                       0x10003cf0   Data          16  flash.o(.bss)
    str3                                     0x10003d00   Data        2000  flash.o(.bss)
    sb                                       0x100044d0   Data         232  main.o(.bss)
    si                                       0x100045b8   Data          50  main.o(.bss)
    qb                                       0x100045ec   Data        2324  handlers.o(.bss)
    st                                       0x10004f00   Data          50  handlers.o(.bss)
    ctb                                      0x10004f34   Data         232  handlers.o(.bss)
    rbs                                      0x1000501c   Data         232  handlers.o(.bss)
    rbc                                      0x10005104   Data         232  handlers.o(.bss)
    tb                                       0x100051ec   Data         232  handlers.o(.bss)
    s                                        0x100052d4   Data          50  handlers.o(.bss)
    tcs_FMove                                0x10005308   Data          28  motors.o(.bss)
    fmvc                                     0x10005324   Data          25  motors.o(.bss)
    fmvs                                     0x10005340   Data          16  motors.o(.bss)
    tcs_MotorY                               0x10005350   Data          28  motor_y.o(.bss)
    mc_Y                                     0x1000536c   Data          40  motor_y.o(.bss)
    ms_Y                                     0x10005398   Data          56  motor_y.o(.bss)
    WaitFlag                                 0x2007c000   Data           1  modbus.o(.data)
    T0MR0                                    0x2007c004   Data           4  timers.o(.data)
    T0MR1                                    0x2007c008   Data           4  timers.o(.data)
    T0MR2                                    0x2007c00c   Data           4  timers.o(.data)
    T0MR3                                    0x2007c010   Data           4  timers.o(.data)
    T1MR0                                    0x2007c014   Data           4  timers.o(.data)
    T1MR1                                    0x2007c018   Data           4  timers.o(.data)
    T1MR2                                    0x2007c01c   Data           4  timers.o(.data)
    T1MR3                                    0x2007c020   Data           4  timers.o(.data)
    T2MR0                                    0x2007c024   Data           4  timers.o(.data)
    T2MR1                                    0x2007c028   Data           4  timers.o(.data)
    T2MR2                                    0x2007c02c   Data           4  timers.o(.data)
    T2MR3                                    0x2007c030   Data           4  timers.o(.data)
    T3MR0                                    0x2007c034   Data           4  timers.o(.data)
    T3MR1                                    0x2007c038   Data           4  timers.o(.data)
    T3MR2                                    0x2007c03c   Data           4  timers.o(.data)
    T3MR3                                    0x2007c040   Data           4  timers.o(.data)
    TxIntStat0                               0x2007c044   Data           1  uart.o(.data)
    TxIntStat1                               0x2007c045   Data           1  uart.o(.data)
    Delay                                    0x2007c048   Data           4  uart.o(.data)
    FLASH_BankSize                           0x2007c050   Data           4  flash.o(.data)
    FLASH_TotalSize                          0x2007c054   Data           4  flash.o(.data)
    str1                                     0x2007c05c   Data        2000  flash.o(.data)
    str2                                     0x2007c82c   Data        2000  flash.o(.data)
    pErrHandler                              0x2007cffc   Data           4  virtualpins.o(.data)
    pvPins                                   0x2007d000   Data           4  virtualpins.o(.data)
    adrb                                     0x2007d004   Data          72  virtualpins.o(.data)
    Index1                                   0x2007d04c   Data           1  main.o(.data)
    Index2                                   0x2007d04d   Data           1  main.o(.data)
    Save_sGo                                 0x2007d04e   Data           1  main.o(.data)
    fb                                       0x2007d050   Data           4  main.o(.data)
    pb                                       0x2007d054   Data           4  main.o(.data)
    Save_Feed                                0x2007d058   Data           4  main.o(.data)
    Save_Speed                               0x2007d05c   Data           4  main.o(.data)
    pWF_CRC                                  0x2007d060   Data           4  handlers.o(.data)
    TROS_DIR                                 0x2007d064   Data           1  freqinvr.o(.data)
    pFIPWM                                   0x2007d068   Data           4  freqinvr.o(.data)
    pFIPWMFreq                               0x2007d06c   Data           4  freqinvr.o(.data)
    VChange                                  0x2007d070   Data           1  regs.o(.data)
    KP_NA_Count                              0x2007d071   Data           1  regs.o(.data)
    fStopPrg                                 0x2007d072   Data           1  regs.o(.data)
    fStartPrg                                0x2007d073   Data           1  regs.o(.data)
    fSaveRegs                                0x2007d074   Data           1  regs.o(.data)
    iva                                      0x2007d076   Data           2  regs.o(.data)
    pByPass                                  0x2007d07c   Data           4  regs.o(.data)
    pCrushWater                              0x2007d080   Data           4  regs.o(.data)
    pQURepCount                              0x2007d084   Data           4  regs.o(.data)
    pQUTimeout                               0x2007d088   Data           4  regs.o(.data)
    pACmdDump                                0x2007d08c   Data           4  regs.o(.data)
    pAMsg                                    0x2007d090   Data           4  regs.o(.data)
    pAAnswDump                               0x2007d094   Data           4  regs.o(.data)
    pAECmdDump                               0x2007d098   Data           4  regs.o(.data)
    pAEMsg                                   0x2007d09c   Data           4  regs.o(.data)
    pAEAnswDump                              0x2007d0a0   Data           4  regs.o(.data)
    pANCmdDump                               0x2007d0a4   Data           4  regs.o(.data)
    pANMsg                                   0x2007d0a8   Data           4  regs.o(.data)
    pErrCSU1                                 0x2007d0ac   Data           4  regs.o(.data)
    pDropCmd                                 0x2007d0b0   Data           4  regs.o(.data)
    pX_PG_MM                                 0x2007d0b4   Data           4  regs.o(.data)
    pX_SPR                                   0x2007d0b8   Data           4  regs.o(.data)
    pX_MIN                                   0x2007d0bc   Data           4  regs.o(.data)
    pX_MAX                                   0x2007d0c0   Data           4  regs.o(.data)
    vX_MIN_POS                               0x2007d0c4   Data           4  regs.o(.data)
    vX_MAX_POS                               0x2007d0c8   Data           4  regs.o(.data)
    pY_PG_MM                                 0x2007d0cc   Data           4  regs.o(.data)
    pY_SPR                                   0x2007d0d0   Data           4  regs.o(.data)
    pY_MIN                                   0x2007d0d4   Data           4  regs.o(.data)
    pY_MAX                                   0x2007d0d8   Data           4  regs.o(.data)
    vY_MIN_POS                               0x2007d0dc   Data           4  regs.o(.data)
    vY_MAX_POS                               0x2007d0e0   Data           4  regs.o(.data)
    pZ_PG_MM                                 0x2007d0e4   Data           4  regs.o(.data)
    pZ_SPR                                   0x2007d0e8   Data           4  regs.o(.data)
    pZ_MIN                                   0x2007d0ec   Data           4  regs.o(.data)
    pZ_MAX                                   0x2007d0f0   Data           4  regs.o(.data)
    vZ_MIN_POS                               0x2007d0f4   Data           4  regs.o(.data)
    vZ_MAX_POS                               0x2007d0f8   Data           4  regs.o(.data)
    dXPos                                    0x2007d0fc   Data           4  regs.o(.data)
    dYPos                                    0x2007d100   Data           4  regs.o(.data)
    dZPos                                    0x2007d104   Data           4  regs.o(.data)
    pIntKPCtrl                               0x2007d108   Data           4  regs.o(.data)
    pIntKPCtrlStop                           0x2007d10c   Data           4  regs.o(.data)
    pKP_NA_Max                               0x2007d110   Data           4  regs.o(.data)
    pLinkKP                                  0x2007d114   Data           4  regs.o(.data)
    pCorrStop                                0x2007d118   Data           4  regs.o(.data)
    pRecoverBlock                            0x2007d11c   Data           4  regs.o(.data)
    pHTCorr                                  0x2007d120   Data           4  regs.o(.data)
    pZZeroDat                                0x2007d124   Data           4  regs.o(.data)
    pFdbyFnom                                0x2007d128   Data           4  regs.o(.data)
    pFnom                                    0x2007d12c   Data           4  regs.o(.data)
    pYmove                                   0x2007d134   Data           4  keypad.o(.data)
    pXmove                                   0x2007d138   Data           4  keypad.o(.data)
    pBtn5                                    0x2007d13c   Data           4  keypad.o(.data)
    pBUZZ                                    0x2007d140   Data           4  keypad.o(.data)
    ClrSX                                    0x2007d144   Data           1  motor_x.o(.data)
    ClrSZ                                    0x2007d145   Data           1  motor_z.o(.data)
    CheckPointFrz::f3                        0x2007d146   Data           1  main.o(.data__ZZ13CheckPointFrzE2f3)
    CrushWaterFrz::f                         0x2007d147   Data           1  main.o(.data__ZZ13CrushWaterFrzE1f)
    HTCheckPointFrz::f5                      0x2007d148   Data           1  main.o(.data__ZZ15HTCheckPointFrzE2f5)
    ZZCheckPointFrz::f5                      0x2007d149   Data           1  main.o(.data__ZZ15ZZCheckPointFrzE2f5)
    BtnsMotorXHandler::fB                    0x2007d14a   Data           1  main.o(.data__ZZ17BtnsMotorXHandlerE2fB)
    BtnsMotorYHandler::fB                    0x2007d14b   Data           1  main.o(.data__ZZ17BtnsMotorYHandlerE2fB)
    BtnsMotorZHandler::fB                    0x2007d14c   Data           1  main.o(.data__ZZ17BtnsMotorZHandlerE2fB)
    BtnAxisSwitchHandler::f                  0x2007d14d   Data           1  main.o(.data__ZZ20BtnAxisSwitchHandlerE1f)
    HTCorrFrz::f2                            0x2007d14e   Data           1  main.o(.data__ZZ9HTCorrFrzE2f2)
    MsgBuf                                   0x2007d150   Data         200  msg.o(.bss)
    bufmsg                                   0x2007d218   Data         120  msg.o(.bss)
    aVQPIN                                   0x2007d290   Data         720  virtualpins.o(.bss)
    pe                                       0x2007d560   Data          16  virtualpins.o(.bss)
    qu                                       0x2007d570   Data        3306  queue.o(.bss)
    rbuf                                     0x2007e25a   Data         255  u0packets.o(.bss)
    buffer0                                  0x2007e359   Data          10  u0packets.o(.bss)
    buffer1                                  0x2007e363   Data         255  u1packets.o(.bss)
    va                                       0x2007e464   Data        7200  regs.o(.bss)
    regs                                     0x20080084   Data        1000  regs.o(.bss)
    tcs_MotorX                               0x20080470   Data          28  motor_x.o(.bss)
    mc_X                                     0x2008048c   Data          40  motor_x.o(.bss)
    ms_X                                     0x200804b8   Data          56  motor_x.o(.bss)
    tcs_MotorZ                               0x200804f0   Data          28  motor_z.o(.bss)
    mc_Z                                     0x2008050c   Data          40  motor_z.o(.bss)
    ms_Z                                     0x20080538   Data          56  motor_z.o(.bss)
    __libspace_start                         0x20080570   Data          96  libspace.o(.bss)
    __temporary_stack_top$libspace           0x200805d0   Data           0  libspace.o(.bss)



==============================================================================

Memory Map of the image

  Image Entry point : 0x000020cd

  Load Region LR_IROM1 (Base: 0x00002000, Size: 0x0001368c, Max: 0x00080000, ABSOLUTE, COMPRESSED[0x000129c0])

    Execution Region ER_IROM1 (Base: 0x00002000, Size: 0x000120a4, Max: 0x00080000, ABSOLUTE)

    Base Addr    Size         Type   Attr      Idx    E Section Name        Object

    0x00002000   0x000000cc   Data   RO            3    RESET               startup_lpc17xx.o
    0x000020cc   0x00000008   Code   RO         1486  * !!!main             c_w.l(__main.o)
    0x000020d4   0x00000034   Code   RO         1894    !!!scatter          c_w.l(__scatter.o)
    0x00002108   0x00000064   Code   RO         1892    !!dclz77c           c_w.l(__dclz77c.o)
    0x0000216c   0x0000001c   Code   RO         1896    !!handler_zi        c_w.l(__scatter_zi.o)
    0x00002188   0x00000000   Code   RO         1469    .ARM.Collect$$_printf_percent$$00000000  c_w.l(_printf_percent.o)
    0x00002188   0x00000006   Code   RO         1612    .ARM.Collect$$_printf_percent$$00000001  c_w.l(_printf_n.o)
    0x0000218e   0x00000006   Code   RO         1613    .ARM.Collect$$_printf_percent$$00000002  c_w.l(_printf_p.o)
    0x00002194   0x00000006   Code   RO         1468    .ARM.Collect$$_printf_percent$$00000003  c_w.l(_printf_f.o)
    0x0000219a   0x00000006   Code   RO         1617    .ARM.Collect$$_printf_percent$$00000004  c_w.l(_printf_e.o)
    0x000021a0   0x00000006   Code   RO         1618    .ARM.Collect$$_printf_percent$$00000005  c_w.l(_printf_g.o)
    0x000021a6   0x00000006   Code   RO         1619    .ARM.Collect$$_printf_percent$$00000006  c_w.l(_printf_a.o)
    0x000021ac   0x0000000a   Code   RO         1624    .ARM.Collect$$_printf_percent$$00000007  c_w.l(_printf_ll.o)
    0x000021b6   0x00000006   Code   RO         1615    .ARM.Collect$$_printf_percent$$00000008  c_w.l(_printf_i.o)
    0x000021bc   0x00000006   Code   RO         1467    .ARM.Collect$$_printf_percent$$00000009  c_w.l(_printf_d.o)
    0x000021c2   0x00000006   Code   RO         1616    .ARM.Collect$$_printf_percent$$0000000A  c_w.l(_printf_u.o)
    0x000021c8   0x00000006   Code   RO         1614    .ARM.Collect$$_printf_percent$$0000000B  c_w.l(_printf_o.o)
    0x000021ce   0x00000006   Code   RO         1466    .ARM.Collect$$_printf_percent$$0000000C  c_w.l(_printf_x.o)
    0x000021d4   0x00000006   Code   RO         1621    .ARM.Collect$$_printf_percent$$0000000D  c_w.l(_printf_lli.o)
    0x000021da   0x00000006   Code   RO         1622    .ARM.Collect$$_printf_percent$$0000000E  c_w.l(_printf_lld.o)
    0x000021e0   0x00000006   Code   RO         1623    .ARM.Collect$$_printf_percent$$0000000F  c_w.l(_printf_llu.o)
    0x000021e6   0x00000006   Code   RO         1628    .ARM.Collect$$_printf_percent$$00000010  c_w.l(_printf_llo.o)
    0x000021ec   0x00000006   Code   RO         1629    .ARM.Collect$$_printf_percent$$00000011  c_w.l(_printf_llx.o)
    0x000021f2   0x0000000a   Code   RO         1625    .ARM.Collect$$_printf_percent$$00000012  c_w.l(_printf_l.o)
    0x000021fc   0x00000006   Code   RO         1610    .ARM.Collect$$_printf_percent$$00000013  c_w.l(_printf_c.o)
    0x00002202   0x00000006   Code   RO         1611    .ARM.Collect$$_printf_percent$$00000014  c_w.l(_printf_s.o)
    0x00002208   0x00000006   Code   RO         1626    .ARM.Collect$$_printf_percent$$00000015  c_w.l(_printf_lc.o)
    0x0000220e   0x00000006   Code   RO         1627    .ARM.Collect$$_printf_percent$$00000016  c_w.l(_printf_ls.o)
    0x00002214   0x00000004   Code   RO         1620    .ARM.Collect$$_printf_percent$$00000017  c_w.l(_printf_percent_end.o)
    0x00002218   0x00000002   Code   RO         1758    .ARM.Collect$$libinit$$00000000  c_w.l(libinit.o)
    0x0000221a   0x00000000   Code   RO         1760    .ARM.Collect$$libinit$$00000002  c_w.l(libinit2.o)
    0x0000221a   0x00000000   Code   RO         1762    .ARM.Collect$$libinit$$00000004  c_w.l(libinit2.o)
    0x0000221a   0x00000000   Code   RO         1765    .ARM.Collect$$libinit$$0000000A  c_w.l(libinit2.o)
    0x0000221a   0x00000000   Code   RO         1767    .ARM.Collect$$libinit$$0000000C  c_w.l(libinit2.o)
    0x0000221a   0x00000000   Code   RO         1769    .ARM.Collect$$libinit$$0000000E  c_w.l(libinit2.o)
    0x0000221a   0x00000006   Code   RO         1770    .ARM.Collect$$libinit$$0000000F  c_w.l(libinit2.o)
    0x00002220   0x00000000   Code   RO         1772    .ARM.Collect$$libinit$$00000011  c_w.l(libinit2.o)
    0x00002220   0x0000000c   Code   RO         1773    .ARM.Collect$$libinit$$00000012  c_w.l(libinit2.o)
    0x0000222c   0x00000000   Code   RO         1774    .ARM.Collect$$libinit$$00000013  c_w.l(libinit2.o)
    0x0000222c   0x00000000   Code   RO         1776    .ARM.Collect$$libinit$$00000015  c_w.l(libinit2.o)
    0x0000222c   0x0000000a   Code   RO         1777    .ARM.Collect$$libinit$$00000016  c_w.l(libinit2.o)
    0x00002236   0x00000000   Code   RO         1778    .ARM.Collect$$libinit$$00000017  c_w.l(libinit2.o)
    0x00002236   0x00000000   Code   RO         1780    .ARM.Collect$$libinit$$00000019  c_w.l(libinit2.o)
    0x00002236   0x00000000   Code   RO         1782    .ARM.Collect$$libinit$$0000001B  c_w.l(libinit2.o)
    0x00002236   0x00000000   Code   RO         1784    .ARM.Collect$$libinit$$0000001D  c_w.l(libinit2.o)
    0x00002236   0x00000000   Code   RO         1786    .ARM.Collect$$libinit$$0000001F  c_w.l(libinit2.o)
    0x00002236   0x00000000   Code   RO         1788    .ARM.Collect$$libinit$$00000021  c_w.l(libinit2.o)
    0x00002236   0x00000000   Code   RO         1790    .ARM.Collect$$libinit$$00000023  c_w.l(libinit2.o)
    0x00002236   0x00000000   Code   RO         1792    .ARM.Collect$$libinit$$00000025  c_w.l(libinit2.o)
    0x00002236   0x00000000   Code   RO         1796    .ARM.Collect$$libinit$$0000002C  c_w.l(libinit2.o)
    0x00002236   0x00000000   Code   RO         1798    .ARM.Collect$$libinit$$0000002E  c_w.l(libinit2.o)
    0x00002236   0x00000000   Code   RO         1800    .ARM.Collect$$libinit$$00000030  c_w.l(libinit2.o)
    0x00002236   0x00000000   Code   RO         1802    .ARM.Collect$$libinit$$00000032  c_w.l(libinit2.o)
    0x00002236   0x00000002   Code   RO         1803    .ARM.Collect$$libinit$$00000033  c_w.l(libinit2.o)
    0x00002238   0x00000002   Code   RO         1857    .ARM.Collect$$libshutdown$$00000000  c_w.l(libshutdown.o)
    0x0000223a   0x00000000   Code   RO         1875    .ARM.Collect$$libshutdown$$00000002  c_w.l(libshutdown2.o)
    0x0000223a   0x00000000   Code   RO         1877    .ARM.Collect$$libshutdown$$00000004  c_w.l(libshutdown2.o)
    0x0000223a   0x00000000   Code   RO         1880    .ARM.Collect$$libshutdown$$00000007  c_w.l(libshutdown2.o)
    0x0000223a   0x00000000   Code   RO         1883    .ARM.Collect$$libshutdown$$0000000A  c_w.l(libshutdown2.o)
    0x0000223a   0x00000000   Code   RO         1885    .ARM.Collect$$libshutdown$$0000000C  c_w.l(libshutdown2.o)
    0x0000223a   0x00000000   Code   RO         1888    .ARM.Collect$$libshutdown$$0000000F  c_w.l(libshutdown2.o)
    0x0000223a   0x00000002   Code   RO         1889    .ARM.Collect$$libshutdown$$00000010  c_w.l(libshutdown2.o)
    0x0000223c   0x00000000   Code   RO         1578    .ARM.Collect$$rtentry$$00000000  c_w.l(__rtentry.o)
    0x0000223c   0x00000000   Code   RO         1666    .ARM.Collect$$rtentry$$00000002  c_w.l(__rtentry2.o)
    0x0000223c   0x00000006   Code   RO         1678    .ARM.Collect$$rtentry$$00000004  c_w.l(__rtentry4.o)
    0x00002242   0x00000000   Code   RO         1668    .ARM.Collect$$rtentry$$00000009  c_w.l(__rtentry2.o)
    0x00002242   0x00000004   Code   RO         1669    .ARM.Collect$$rtentry$$0000000A  c_w.l(__rtentry2.o)
    0x00002246   0x00000000   Code   RO         1671    .ARM.Collect$$rtentry$$0000000C  c_w.l(__rtentry2.o)
    0x00002246   0x00000008   Code   RO         1672    .ARM.Collect$$rtentry$$0000000D  c_w.l(__rtentry2.o)
    0x0000224e   0x00000002   Code   RO         1806    .ARM.Collect$$rtexit$$00000000  c_w.l(rtexit.o)
    0x00002250   0x00000000   Code   RO         1826    .ARM.Collect$$rtexit$$00000002  c_w.l(rtexit2.o)
    0x00002250   0x00000004   Code   RO         1827    .ARM.Collect$$rtexit$$00000003  c_w.l(rtexit2.o)
    0x00002254   0x00000006   Code   RO         1828    .ARM.Collect$$rtexit$$00000004  c_w.l(rtexit2.o)
    0x0000225a   0x00000002   PAD
    0x0000225c   0x00000008   Code   RO          182    .emb_text           sbl_iap.o
    0x00002264   0x00000040   Code   RO            5    .text               startup_lpc17xx.o
    0x000022a4   0x00000178   Code   RO           25    .text               system_lpc17xx.o
    0x0000241c   0x00000108   Code   RO           64    .text               lpc17xx_clkpwr.o
    0x00002524   0x000000a8   Code   RO          102    .text               lpc17xx_pinsel.o
    0x000025cc   0x0000060c   Code   RO          125    .text               lpc17xx_uart.o
    0x00002bd8   0x000002f8   Code   RO          159    .text               lpc17xx_timer.o
    0x00002ed0   0x00000384   Code   RO          219    .text               modbus.o
    0x00003254   0x0000161c   Code   RO          294    .text               fs.o
    0x00004870   0x000000d0   Code   RO          338    .text               msg.o
    0x00004940   0x00000238   Code   RO          382    .text               bfs.o
    0x00004b78   0x00000038   Code   RO          401    .text               ti.o
    0x00004bb0   0x00000634   Code   RO          435    .text               timers.o
    0x000051e4   0x000006c8   Code   RO          476    .text               uart.o
    0x000058ac   0x00000050   Code   RO          506    .text               tools.o
    0x000058fc   0x000006bc   Code   RO          526    .text               flash.o
    0x00005fb8   0x0000054c   Code   RO          576    .text               virtualpins.o
    0x00006504   0x00000600   Code   RO          619    .text               queue.o
    0x00006b04   0x000012c8   Code   RO          655    .text               u0packets.o
    0x00007dcc   0x00000048   Code   RO          721    .text               u1packets.o
    0x00007e14   0x000003f8   Code   RO          759    .text               main.o
    0x0000820c   0x00001c08   Code   RO          986    .text               handlers.o
    0x00009e14   0x00001710   Code   RO         1067    .text               motors.o
    0x0000b524   0x000000e8   Code   RO         1127    .text               freqinvr.o
    0x0000b60c   0x00001b70   Code   RO         1154    .text               regs.o
    0x0000d17c   0x000000f4   Code   RO         1210    .text               keypad.o
    0x0000d270   0x000000d4   Code   RO         1237    .text               motor_x.o
    0x0000d344   0x000000e4   Code   RO         1295    .text               motor_y.o
    0x0000d428   0x000000d4   Code   RO         1345    .text               motor_z.o
    0x0000d4fc   0x00000050   Code   RO         1391    .text               pwm.o
    0x0000d54c   0x000000ee   Code   RO         1411    .text               c_w.l(lludivv7m.o)
    0x0000d63a   0x00000002   PAD
    0x0000d63c   0x00000024   Code   RO         1413    .text               c_w.l(c89vsprintf.o)
    0x0000d660   0x0000002c   Code   RO         1415    .text               c_w.l(__2sprintf.o)
    0x0000d68c   0x0000004e   Code   RO         1421    .text               c_w.l(_printf_pad.o)
    0x0000d6da   0x00000002   PAD
    0x0000d6dc   0x00000078   Code   RO         1423    .text               c_w.l(_printf_dec.o)
    0x0000d754   0x00000094   Code   RO         1443    .text               c_w.l(_printf_hex_int_ll_ptr.o)
    0x0000d7e8   0x00000188   Code   RO         1463    .text               c_w.l(__printf_flags_ss_wp.o)
    0x0000d970   0x00000048   Code   RO         1470    .text               c_w.l(strcpy.o)
    0x0000d9b8   0x0000003e   Code   RO         1472    .text               c_w.l(strlen.o)
    0x0000d9f6   0x0000008a   Code   RO         1474    .text               c_w.l(rt_memcpy_v6.o)
    0x0000da80   0x00000064   Code   RO         1476    .text               c_w.l(rt_memcpy_w.o)
    0x0000dae4   0x00000044   Code   RO         1478    .text               c_w.l(rt_memclr.o)
    0x0000db28   0x0000004e   Code   RO         1480    .text               c_w.l(rt_memclr_w.o)
    0x0000db76   0x00000002   PAD
    0x0000db78   0x00000080   Code   RO         1482    .text               c_w.l(strcmpv7m.o)
    0x0000dbf8   0x00000006   Code   RO         1484    .text               c_w.l(heapauxi.o)
    0x0000dbfe   0x00000016   Code   RO         1583    .text               c_w.l(_rserrno.o)
    0x0000dc14   0x00000024   Code   RO         1585    .text               c_w.l(_printf_truncate.o)
    0x0000dc38   0x00000052   Code   RO         1587    .text               c_w.l(_printf_str.o)
    0x0000dc8a   0x000000b2   Code   RO         1589    .text               c_w.l(_printf_intcommon.o)
    0x0000dd3c   0x00000028   Code   RO         1591    .text               c_w.l(_printf_charcount.o)
    0x0000dd64   0x0000041a   Code   RO         1593    .text               c_w.l(_printf_fp_dec.o)
    0x0000e17e   0x00000002   PAD
    0x0000e180   0x00000030   Code   RO         1595    .text               c_w.l(_printf_char_common.o)
    0x0000e1b0   0x0000000a   Code   RO         1597    .text               c_w.l(_sputc.o)
    0x0000e1ba   0x00000002   PAD
    0x0000e1bc   0x000000bc   Code   RO         1599    .text               c_w.l(_printf_wctomb.o)
    0x0000e278   0x0000007c   Code   RO         1602    .text               c_w.l(_printf_longlong_dec.o)
    0x0000e2f4   0x00000070   Code   RO         1608    .text               c_w.l(_printf_oct_int_ll.o)
    0x0000e364   0x00000008   Code   RO         1685    .text               c_w.l(rt_locale_intlibspace.o)
    0x0000e36c   0x00000008   Code   RO         1690    .text               c_w.l(rt_errno_addr_intlibspace.o)
    0x0000e374   0x0000008a   Code   RO         1692    .text               c_w.l(lludiv10.o)
    0x0000e3fe   0x00000002   PAD
    0x0000e400   0x00000080   Code   RO         1694    .text               c_w.l(_printf_fp_infnan.o)
    0x0000e480   0x0000002c   Code   RO         1698    .text               c_w.l(_printf_char.o)
    0x0000e4ac   0x0000002c   Code   RO         1700    .text               c_w.l(_printf_wchar.o)
    0x0000e4d8   0x000000dc   Code   RO         1702    .text               c_w.l(bigflt0.o)
    0x0000e5b4   0x00000040   Code   RO         1727    .text               c_w.l(_wcrtomb.o)
    0x0000e5f4   0x00000008   Code   RO         1740    .text               c_w.l(libspace.o)
    0x0000e5fc   0x0000004a   Code   RO         1743    .text               c_w.l(sys_stackheap_outer.o)
    0x0000e646   0x00000002   PAD
    0x0000e648   0x00000010   Code   RO         1745    .text               c_w.l(rt_ctype_table.o)
    0x0000e658   0x00000012   Code   RO         1747    .text               c_w.l(exit.o)
    0x0000e66a   0x00000002   PAD
    0x0000e66c   0x0000000c   Code   RO         1823    .text               c_w.l(sys_exit.o)
    0x0000e678   0x00000002   Code   RO         1844    .text               c_w.l(use_no_semi.o)
    0x0000e67a   0x00000000   Code   RO         1846    .text               c_w.l(indicate_semi.o)
    0x0000e67a   0x0000003e   Code   RO         1705    CL$$btod_d2e        c_w.l(btod.o)
    0x0000e6b8   0x00000046   Code   RO         1707    CL$$btod_d2e_denorm_low  c_w.l(btod.o)
    0x0000e6fe   0x00000060   Code   RO         1706    CL$$btod_d2e_norm_op1  c_w.l(btod.o)
    0x0000e75e   0x00000338   Code   RO         1715    CL$$btod_div_common  c_w.l(btod.o)
    0x0000ea96   0x000000c6   Code   RO         1712    CL$$btod_e2e        c_w.l(btod.o)
    0x0000eb5c   0x00000028   Code   RO         1709    CL$$btod_ediv       c_w.l(btod.o)
    0x0000eb84   0x00000028   Code   RO         1708    CL$$btod_emul       c_w.l(btod.o)
    0x0000ebac   0x00000244   Code   RO         1714    CL$$btod_mult_common  c_w.l(btod.o)
    0x0000edf0   0x000000fc   Code   RO          810    i.BtnsMotorXHandler  main.o
    0x0000eeec   0x000000fc   Code   RO          798    i.BtnsMotorYHandler  main.o
    0x0000efe8   0x000000fc   Code   RO          804    i.BtnsMotorZHandler  main.o
    0x0000f0e4   0x000000a8   Code   RO          842    i.ButtonsToRegs     main.o
    0x0000f18c   0x00000084   Code   RO          832    i.CheckPointFrz     main.o
    0x0000f210   0x00000068   Code   RO          822    i.FormQueue         main.o
    0x0000f278   0x00000084   Code   RO          837    i.HTCheckPointFrz   main.o
    0x0000f2fc   0x000000b8   Code   RO          847    i.InitFrzTimers     main.o
    0x0000f3b4   0x00000618   Code   RO         1269    i.MoveBtnX          motor_x.o
    0x0000f9cc   0x00000628   Code   RO         1327    i.MoveBtnY          motor_y.o
    0x0000fff4   0x000005c8   Code   RO         1377    i.MoveBtnZ          motor_z.o
    0x000105bc   0x0000016c   Code   RO          816    i.MoveByRegs        main.o
    0x00010728   0x00000490   Code   RO         1263    i.MovePosX          motor_x.o
    0x00010bb8   0x000003d0   Code   RO         1321    i.MovePosY          motor_y.o
    0x00010f88   0x000003bc   Code   RO         1371    i.MovePosZ          motor_z.o
    0x00011344   0x00000250   Code   RO         1257    i.PositX            motor_x.o
    0x00011594   0x00000260   Code   RO         1315    i.PositY            motor_y.o
    0x000117f4   0x00000238   Code   RO         1365    i.PositZ            motor_z.o
    0x00011a2c   0x00000260   Code   RO          786    i.RecoverBlock      main.o
    0x00011c8c   0x00000110   Code   RO          792    i.RunPrgFrz         main.o
    0x00011d9c   0x000000dc   Code   RO          780    i.StopPrg           main.o
    0x00011e78   0x00000084   Code   RO          827    i.ZZCheckPointFrz   main.o
    0x00011efc   0x00000074   Code   RO          852    i.ZZeroDat          main.o
    0x00011f70   0x00000028   Code   RO         1738    i.__ARM_fpclassify  m_ws.l(fpclassify.o)
    0x00011f98   0x000000aa   Code   RO         1663    i.__kernel_poly     m_ws.l(poly.o)
    0x00012042   0x00000006   Code   RO         1650    i.__mathlib_dbl_infnan  m_ws.l(dunder.o)
    0x00012048   0x0000000c   Code   RO         1652    i.__mathlib_dbl_invalid  m_ws.l(dunder.o)
    0x00012054   0x0000000e   Code   RO         1456    i._is_digit         c_w.l(__printf_wp.o)
    0x00012062   0x00000002   PAD
    0x00012064   0x0000027c   Code   RO         1557    i.acos              m_ws.l(acos.o)
    0x000122e0   0x000000dc   Code   RO         1567    i.ceil              m_ws.l(ceil.o)
    0x000123bc   0x0000004c   Code   RO         1571    i.sqrt              m_ws.l(sqrt.o)
    0x00012408   0x0000002c   Code   RO         1730    locale$$code        c_w.l(lc_numeric_c.o)
    0x00012434   0x0000002c   Code   RO         1811    locale$$code        c_w.l(lc_ctype_c.o)
    0x00012460   0x00000062   Code   RO         1488    x$fpl$d2f           fz_ws.l(d2f.o)
    0x000124c2   0x00000002   PAD
    0x000124c4   0x00000150   Code   RO         1490    x$fpl$dadd          fz_ws.l(daddsub_clz.o)
    0x00012614   0x00000010   Code   RO         1732    x$fpl$dcheck1       fz_ws.l(dcheck1.o)
    0x00012624   0x00000018   Code   RO         1734    x$fpl$dcmpinf       fz_ws.l(dcmpi.o)
    0x0001263c   0x000002b0   Code   RO         1497    x$fpl$ddiv          fz_ws.l(ddiv.o)
    0x000128ec   0x0000005e   Code   RO         1500    x$fpl$dfix          fz_ws.l(dfix.o)
    0x0001294a   0x00000002   PAD
    0x0001294c   0x0000005a   Code   RO         1504    x$fpl$dfixu         fz_ws.l(dfixu.o)
    0x000129a6   0x0000002e   Code   RO         1513    x$fpl$dflt          fz_ws.l(dflt_clz.o)
    0x000129d4   0x00000026   Code   RO         1512    x$fpl$dfltu         fz_ws.l(dflt_clz.o)
    0x000129fa   0x00000002   PAD
    0x000129fc   0x0000008a   Code   RO         1519    x$fpl$dfltull       fz_ws.l(dfltll_clz.o)
    0x00012a86   0x00000002   PAD
    0x00012a88   0x00000078   Code   RO         1630    x$fpl$dleqf         fz_ws.l(dleqf.o)
    0x00012b00   0x00000154   Code   RO         1522    x$fpl$dmul          fz_ws.l(dmul.o)
    0x00012c54   0x0000009c   Code   RO         1632    x$fpl$dnaninf       fz_ws.l(dnaninf.o)
    0x00012cf0   0x0000000c   Code   RO         1634    x$fpl$dretinf       fz_ws.l(dretinf.o)
    0x00012cfc   0x0000006c   Code   RO         1636    x$fpl$drleqf        fz_ws.l(drleqf.o)
    0x00012d68   0x00000016   Code   RO         1491    x$fpl$drsb          fz_ws.l(daddsub_clz.o)
    0x00012d7e   0x00000002   PAD
    0x00012d80   0x000001cc   Code   RO         1638    x$fpl$dsqrt         fz_ws.l(dsqrt_noumaal.o)
    0x00012f4c   0x000001d4   Code   RO         1492    x$fpl$dsub          fz_ws.l(daddsub_clz.o)
    0x00013120   0x00000056   Code   RO         1524    x$fpl$f2d           fz_ws.l(f2d.o)
    0x00013176   0x00000002   PAD
    0x00013178   0x000000c4   Code   RO         1526    x$fpl$fadd          fz_ws.l(faddsub_clz.o)
    0x0001323c   0x00000018   Code   RO         1640    x$fpl$fcmpinf       fz_ws.l(fcmpi.o)
    0x00013254   0x00000184   Code   RO         1533    x$fpl$fdiv          fz_ws.l(fdiv.o)
    0x000133d8   0x00000068   Code   RO         1536    x$fpl$feqf          fz_ws.l(feqf.o)
    0x00013440   0x00000036   Code   RO         1538    x$fpl$ffix          fz_ws.l(ffix.o)
    0x00013476   0x00000002   PAD
    0x00013478   0x00000030   Code   RO         1543    x$fpl$fflt          fz_ws.l(fflt_clz.o)
    0x000134a8   0x00000026   Code   RO         1542    x$fpl$ffltu         fz_ws.l(fflt_clz.o)
    0x000134ce   0x00000002   PAD
    0x000134d0   0x00000068   Code   RO         1548    x$fpl$fleqf         fz_ws.l(fleqf.o)
    0x00013538   0x00000102   Code   RO         1550    x$fpl$fmul          fz_ws.l(fmul.o)
    0x0001363a   0x0000008c   Code   RO         1642    x$fpl$fnaninf       fz_ws.l(fnaninf.o)
    0x000136c6   0x0000000a   Code   RO         1644    x$fpl$fretinf       fz_ws.l(fretinf.o)
    0x000136d0   0x00000062   Code   RO         1552    x$fpl$frleqf        fz_ws.l(frleqf.o)
    0x00013732   0x00000014   Code   RO         1527    x$fpl$frsb          fz_ws.l(faddsub_clz.o)
    0x00013746   0x00000002   PAD
    0x00013748   0x000000ea   Code   RO         1528    x$fpl$fsub          fz_ws.l(faddsub_clz.o)
    0x00013832   0x00000002   PAD
    0x00013834   0x00000078   Code   RO         1508    x$fpl$llufromd      fz_ws.l(dfixull.o)
    0x000138ac   0x00000004   Code   RO         1554    x$fpl$printf1       fz_ws.l(printf1.o)
    0x000138b0   0x00000064   Code   RO         1804    x$fpl$retnan        fz_ws.l(retnan.o)
    0x00013914   0x0000005c   Code   RO         1646    x$fpl$scalbn        fz_ws.l(scalbn.o)
    0x00013970   0x00000030   Code   RO         1821    x$fpl$trapveneer    fz_ws.l(trapv.o)
    0x000139a0   0x00000000   Code   RO         1648    x$fpl$usenofp       fz_ws.l(usenofp.o)
    0x000139a0   0x00000200   Data   RO          221    .constdata          modbus.o
    0x00013ba0   0x00000010   Data   RO          529    .constdata          flash.o
    0x00013bb0   0x00000028   Data   RO         1444    .constdata          c_w.l(_printf_hex_int_ll_ptr.o)
    0x00013bd8   0x00000011   Data   RO         1464    .constdata          c_w.l(__printf_flags_ss_wp.o)
    0x00013be9   0x00000007   PAD
    0x00013bf0   0x00000050   Data   RO         1558    .constdata          m_ws.l(acos.o)
    0x00013c40   0x00000008   Data   RO         1600    .constdata          c_w.l(_printf_wctomb.o)
    0x00013c48   0x00000094   Data   RO         1703    .constdata          c_w.l(bigflt0.o)
    0x00013cdc   0x000000eb   Data   RO          761    .conststring        main.o
    0x00013dc7   0x00000001   PAD
    0x00013dc8   0x00000058   Data   RO         1069    .conststring        motors.o
    0x00013e20   0x00000066   Data   RO         1239    .conststring        motor_x.o
    0x00013e86   0x00000002   PAD
    0x00013e88   0x00000056   Data   RO         1297    .conststring        motor_y.o
    0x00013ede   0x00000002   PAD
    0x00013ee0   0x00000056   Data   RO         1347    .conststring        motor_z.o
    0x00013f36   0x00000002   PAD
    0x00013f38   0x00000040   Data   RO         1890    Region$$Table       anon$$obj.o
    0x00013f78   0x0000001c   Data   RO         1729    locale$$data        c_w.l(lc_numeric_c.o)
    0x00013f94   0x00000110   Data   RO         1810    locale$$data        c_w.l(lc_ctype_c.o)


    Execution Region RW_IRAM1 (Base: 0x10000000, Size: 0x000053d0, Max: 0x00008000, ABSOLUTE, COMPRESSED[0x0000020c])

    Base Addr    Size         Type   Attr      Idx    E Section Name        Object

    0x10000000   0x00000004   Data   RW           26    .data               system_lpc17xx.o
    0x10000004   0x00000018   Data   RW          222    .data               modbus.o
    0x1000001c   0x0000002c   Data   RW          296    .data               fs.o
    0x10000048   0x00000008   Data   RW          340    .data               msg.o
    0x10000050   0x00000100   Data   RW          507    .data               tools.o
    0x10000150   0x000001b0   Data   RW          556    .data               staticpins.o
    0x10000300   0x00000003   Data   RW          621    .data               queue.o
    0x10000303   0x00000001   PAD
    0x10000304   0x0000005c   Data   RW          988    .data               handlers.o
    0x10000360   0x00000098   Data   RW         1070    .data               motors.o
    0x100003f8   0x00000001   Data   RW         1157    .data               regs.o
    0x100003f9   0x00000003   PAD
    0x100003fc   0x00000004   Data   RW         1158    .data               regs.o
    0x10000400   0x0000006c   Data   RW         1198    .data               vpfrz.o
    0x1000046c   0x00000014   Data   RW         1211    .data               keypad.o
    0x10000480   0x00000004   Data   RW         1213    .data               keypad.o
    0x10000484   0x00000004   Data   RW         1215    .data               keypad.o
    0x10000488   0x00000004   Data   RW         1217    .data               keypad.o
    0x1000048c   0x00000001   Data   RW         1298    .data               motor_y.o
    0x1000048d   0x00000001   Data   RW          873    .data__ZZ11Btn5HandlerE1f  main.o
    0x1000048e   0x00000001   Data   RW          859    .data__ZZ11ZZeroDatFrzE2f2  main.o
    0x1000048f   0x00000001   Data   RW          863    .data__ZZ13CheckPointFrzE2f4  main.o
    0x10000490   0x00000001   Data   RW          865    .data__ZZ15HTCheckPointFrzE2f6  main.o
    0x10000491   0x00000001   Data   RW          861    .data__ZZ15ZZCheckPointFrzE2f6  main.o
    0x10000492   0x00000001   Data   RW          871    .data__ZZ17BtnsMotorXHandlerE2fD  main.o
    0x10000493   0x00000001   Data   RW          867    .data__ZZ17BtnsMotorYHandlerE2fD  main.o
    0x10000494   0x00000001   Data   RW          869    .data__ZZ17BtnsMotorZHandlerE2fD  main.o
    0x10000495   0x00000001   Data   RW          857    .data__ZZ9ByPassFrzE2f1  main.o
    0x10000496   0x00000002   PAD
    0x10000498   0x00002500   Zero   RW          220    .bss                modbus.o
    0x10002998   0x00000a38   Zero   RW          295    .bss                fs.o
    0x100033d0   0x000000f0   Zero   RW          402    .bss                ti.o
    0x100034c0   0x00000830   Zero   RW          477    .bss                uart.o
    0x10003cf0   0x000007e0   Zero   RW          527    .bss                flash.o
    0x100044d0   0x0000011a   Zero   RW          760    .bss                main.o
    0x100045ea   0x00000002   PAD
    0x100045ec   0x00000d1a   Zero   RW          987    .bss                handlers.o
    0x10005306   0x00000002   PAD
    0x10005308   0x00000048   Zero   RW         1068    .bss                motors.o
    0x10005350   0x00000080   Zero   RW         1296    .bss                motor_y.o


    Execution Region RW_IRAM2 (Base: 0x2007c000, Size: 0x000053d0, Max: 0x00008000, ABSOLUTE, COMPRESSED[0x00000710])

    Base Addr    Size         Type   Attr      Idx    E Section Name        Object

    0x2007c000   0x00000001   Data   RW          223    .data               modbus.o
    0x2007c001   0x00000003   PAD
    0x2007c004   0x00000040   Data   RW          436    .data               timers.o
    0x2007c044   0x00000008   Data   RW          478    .data               uart.o
    0x2007c04c   0x00000fb0   Data   RW          530    .data               flash.o
    0x2007cffc   0x00000050   Data   RW          578    .data               virtualpins.o
    0x2007d04c   0x00000014   Data   RW          763    .data               main.o
    0x2007d060   0x00000004   Data   RW          990    .data               handlers.o
    0x2007d064   0x0000000c   Data   RW         1128    .data               freqinvr.o
    0x2007d070   0x000000c4   Data   RW         1156    .data               regs.o
    0x2007d134   0x00000004   Data   RW         1212    .data               keypad.o
    0x2007d138   0x00000004   Data   RW         1214    .data               keypad.o
    0x2007d13c   0x00000004   Data   RW         1216    .data               keypad.o
    0x2007d140   0x00000004   Data   RW         1218    .data               keypad.o
    0x2007d144   0x00000001   Data   RW         1240    .data               motor_x.o
    0x2007d145   0x00000001   Data   RW         1348    .data               motor_z.o
    0x2007d146   0x00000001   Data   RW          862    .data__ZZ13CheckPointFrzE2f3  main.o
    0x2007d147   0x00000001   Data   RW          874    .data__ZZ13CrushWaterFrzE1f  main.o
    0x2007d148   0x00000001   Data   RW          864    .data__ZZ15HTCheckPointFrzE2f5  main.o
    0x2007d149   0x00000001   Data   RW          860    .data__ZZ15ZZCheckPointFrzE2f5  main.o
    0x2007d14a   0x00000001   Data   RW          872    .data__ZZ17BtnsMotorXHandlerE2fB  main.o
    0x2007d14b   0x00000001   Data   RW          868    .data__ZZ17BtnsMotorYHandlerE2fB  main.o
    0x2007d14c   0x00000001   Data   RW          870    .data__ZZ17BtnsMotorZHandlerE2fB  main.o
    0x2007d14d   0x00000001   Data   RW          866    .data__ZZ20BtnAxisSwitchHandlerE1f  main.o
    0x2007d14e   0x00000001   Data   RW          858    .data__ZZ9HTCorrFrzE2f2  main.o
    0x2007d14f   0x00000001   PAD
    0x2007d150   0x00000140   Zero   RW          339    .bss                msg.o
    0x2007d290   0x000002e0   Zero   RW          577    .bss                virtualpins.o
    0x2007d570   0x00000cea   Zero   RW          620    .bss                queue.o
    0x2007e25a   0x00000109   Zero   RW          657    .bss                u0packets.o
    0x2007e363   0x000000ff   Zero   RW          722    .bss                u1packets.o
    0x2007e462   0x00000002   PAD
    0x2007e464   0x00002008   Zero   RW         1155    .bss                regs.o
    0x2008046c   0x00000004   PAD
    0x20080470   0x00000080   Zero   RW         1238    .bss                motor_x.o
    0x200804f0   0x00000080   Zero   RW         1346    .bss                motor_z.o
    0x20080570   0x00000060   Zero   RW         1741    .bss                c_w.l(libspace.o)
    0x200805d0   0x00000800   Zero   RW            2    HEAP                startup_lpc17xx.o
    0x20080dd0   0x00000600   Zero   RW            1    STACK               startup_lpc17xx.o



  Load Region LR$$.ARM.__at_0x02FC (Base: 0x000002fc, Size: 0x00000004, Max: 0x00000004, ABSOLUTE)

    Execution Region ER$$.ARM.__at_0x02FC (Base: 0x000002fc, Size: 0x00000004, Max: 0x00000004, ABSOLUTE, UNINIT)

    Base Addr    Size         Type   Attr      Idx    E Section Name        Object

    0x000002fc   0x00000004   Code   RO            4    .ARM.__at_0x02FC    startup_lpc17xx.o


==============================================================================

Image component sizes


      Code (inc. data)   RO Data    RW Data    ZI Data      Debug   Object Name

       568          0          0          0          0       5619   bfs.o
         0          0          0          0          0       4500   core_cm3.o
      1724        166         16       4016       2016      10290   flash.o
       232         42          0         12          0       2163   freqinvr.o
      5660       1110          0         44       2616      22879   fs.o
      7176        950          0         96       3354      23793   handlers.o
       244          8          0         48          0       1831   keypad.o
       264         16          0          0          0       3361   lpc17xx_clkpwr.o
       168          6          0          0          0       4045   lpc17xx_pinsel.o
       760         18          0          0          0       8283   lpc17xx_timer.o
      1548         30          0          0          0      35425   lpc17xx_uart.o
      4204        710        235         38        282      40977   main.o
       900         62        512         25       9472      28602   modbus.o
      3532        158        102          1        128       5708   motor_x.o
      3388        144         86          1        128       4141   motor_y.o
      3216        146         86          1        128       4029   motor_z.o
      5904        744         88        152         72      18615   motors.o
       208         16          0          8        320       2249   msg.o
        80          8          0          0          0        786   pwm.o
      1536        328          0          3       3306       4334   queue.o
      7024       2608          0        201       8200      13190   regs.o
         8          0          0          0          0        316   sbl_iap.o
        68         30        204          0       3584       1100   startup_lpc17xx.o
         0          0          0        432          0        859   staticpins.o
       376         46          0          4          0       1013   system_lpc17xx.o
        56          6          0          0        240      10055   ti.o
      1588         58          0         64          0      36389   timers.o
        80          6          0        256          0       1593   tools.o
      4808        960          0          0        265      41651   u0packets.o
        72          8          0          0        255       1259   u1packets.o
      1736         60          0          8       2096       8833   uart.o
      1356         44          0         80        736       6871   virtualpins.o
         0          0          0        108          0        195   vpfrz.o

    ----------------------------------------------------------------------
     58484       8488       1400       5608      37208     354954   Object Totals
         0          0         64          0          0          0   (incl. Generated)
         0          0          7         10         10          0   (incl. Padding)

    ----------------------------------------------------------------------

      Code (inc. data)   RO Data    RW Data    ZI Data      Debug   Library Member Name

        44          6          0          0          0         84   __2sprintf.o
       100          0          0          0          0          0   __dclz77c.o
         8          0          0          0          0         68   __main.o
       392          4         17          0          0         92   __printf_flags_ss_wp.o
        14          0          0          0          0         68   __printf_wp.o
         0          0          0          0          0          0   __rtentry.o
        12          0          0          0          0          0   __rtentry2.o
         6          0          0          0          0          0   __rtentry4.o
        52          8          0          0          0          0   __scatter.o
        28          0          0          0          0          0   __scatter_zi.o
         6          0          0          0          0          0   _printf_a.o
         6          0          0          0          0          0   _printf_c.o
        44          0          0          0          0        108   _printf_char.o
        48          6          0          0          0         96   _printf_char_common.o
        40          0          0          0          0         68   _printf_charcount.o
         6          0          0          0          0          0   _printf_d.o
       120         16          0          0          0         92   _printf_dec.o
         6          0          0          0          0          0   _printf_e.o
         6          0          0          0          0          0   _printf_f.o
      1050          0          0          0          0        216   _printf_fp_dec.o
       128         16          0          0          0         84   _printf_fp_infnan.o
         6          0          0          0          0          0   _printf_g.o
       148          4         40          0          0        160   _printf_hex_int_ll_ptr.o
         6          0          0          0          0          0   _printf_i.o
       178          0          0          0          0         88   _printf_intcommon.o
        10          0          0          0          0          0   _printf_l.o
         6          0          0          0          0          0   _printf_lc.o
        10          0          0          0          0          0   _printf_ll.o
         6          0          0          0          0          0   _printf_lld.o
         6          0          0          0          0          0   _printf_lli.o
         6          0          0          0          0          0   _printf_llo.o
         6          0          0          0          0          0   _printf_llu.o
         6          0          0          0          0          0   _printf_llx.o
       124         16          0          0          0         92   _printf_longlong_dec.o
         6          0          0          0          0          0   _printf_ls.o
         6          0          0          0          0          0   _printf_n.o
         6          0          0          0          0          0   _printf_o.o
       112          8          0          0          0        124   _printf_oct_int_ll.o
         6          0          0          0          0          0   _printf_p.o
        78          0          0          0          0        108   _printf_pad.o
         0          0          0          0          0          0   _printf_percent.o
         4          0          0          0          0          0   _printf_percent_end.o
         6          0          0          0          0          0   _printf_s.o
        82          0          0          0          0         80   _printf_str.o
        36          0          0          0          0         84   _printf_truncate.o
         6          0          0          0          0          0   _printf_u.o
        44          0          0          0          0        108   _printf_wchar.o
       188          6          8          0          0         92   _printf_wctomb.o
         6          0          0          0          0          0   _printf_x.o
        22          0          0          0          0        100   _rserrno.o
        10          0          0          0          0         68   _sputc.o
        64          0          0          0          0         92   _wcrtomb.o
       220          4        148          0          0         96   bigflt0.o
      1910        128          0          0          0        672   btod.o
        36          4          0          0          0         76   c89vsprintf.o
        18          0          0          0          0         80   exit.o
         6          0          0          0          0        152   heapauxi.o
         0          0          0          0          0          0   indicate_semi.o
        44         10        272          0          0         76   lc_ctype_c.o
        44         10         28          0          0         76   lc_numeric_c.o
         2          0          0          0          0          0   libinit.o
        30          0          0          0          0          0   libinit2.o
         2          0          0          0          0          0   libshutdown.o
         2          0          0          0          0          0   libshutdown2.o
         8          4          0          0         96         68   libspace.o
       138          0          0          0          0         80   lludiv10.o
       238          0          0          0          0        100   lludivv7m.o
        16          4          0          0          0         76   rt_ctype_table.o
         8          4          0          0          0         68   rt_errno_addr_intlibspace.o
         8          4          0          0          0         68   rt_locale_intlibspace.o
        68          0          0          0          0         68   rt_memclr.o
        78          0          0          0          0         80   rt_memclr_w.o
       138          0          0          0          0         68   rt_memcpy_v6.o
       100          0          0          0          0         80   rt_memcpy_w.o
         2          0          0          0          0          0   rtexit.o
        10          0          0          0          0          0   rtexit2.o
       128          0          0          0          0         68   strcmpv7m.o
        72          0          0          0          0         80   strcpy.o
        62          0          0          0          0         76   strlen.o
        12          4          0          0          0         68   sys_exit.o
        74          0          0          0          0         80   sys_stackheap_outer.o
         2          0          0          0          0         68   use_no_semi.o
        98          4          0          0          0         92   d2f.o
       826         16          0          0          0        348   daddsub_clz.o
        16          4          0          0          0         68   dcheck1.o
        24          0          0          0          0         68   dcmpi.o
       688        140          0          0          0        208   ddiv.o
        94          4          0          0          0         92   dfix.o
        90          4          0          0          0         92   dfixu.o
       120          4          0          0          0        104   dfixull.o
        84          0          0          0          0        136   dflt_clz.o
       138          0          0          0          0         84   dfltll_clz.o
       120          4          0          0          0         92   dleqf.o
       340         12          0          0          0        104   dmul.o
       156          4          0          0          0         92   dnaninf.o
        12          0          0          0          0         68   dretinf.o
       108          0          0          0          0         80   drleqf.o
       460         56          0          0          0        120   dsqrt_noumaal.o
        86          4          0          0          0         84   f2d.o
       450          8          0          0          0        236   faddsub_clz.o
        24          0          0          0          0         68   fcmpi.o
       388         76          0          0          0         96   fdiv.o
       104          4          0          0          0         84   feqf.o
        54          4          0          0          0         84   ffix.o
        86          0          0          0          0        136   fflt_clz.o
       104          4          0          0          0         84   fleqf.o
       258          4          0          0          0         84   fmul.o
       140          4          0          0          0         84   fnaninf.o
        10          0          0          0          0         68   fretinf.o
        98          0          0          0          0         68   frleqf.o
         4          0          0          0          0         68   printf1.o
       100          0          0          0          0         68   retnan.o
        92          0          0          0          0         68   scalbn.o
        48          0          0          0          0         68   trapv.o
         0          0          0          0          0          0   usenofp.o
       636         62         80          0          0        188   acos.o
       220         16          0          0          0         84   ceil.o
        18          0          0          0          0        136   dunder.o
        40          0          0          0          0         68   fpclassify.o
       170          0          0          0          0         96   poly.o
        76          0          0          0          0         84   sqrt.o

    ----------------------------------------------------------------------
     13412        704        600          0         96       8548   Library Totals
        40          0          7          0          0          0   (incl. Padding)

    ----------------------------------------------------------------------

      Code (inc. data)   RO Data    RW Data    ZI Data      Debug   Library Name

      6792        266        513          0         96       4596   c_w.l
      5420        360          0          0          0       3296   fz_ws.l
      1160         78         80          0          0        656   m_ws.l

    ----------------------------------------------------------------------
     13412        704        600          0         96       8548   Library Totals

    ----------------------------------------------------------------------

==============================================================================


      Code (inc. data)   RO Data    RW Data    ZI Data      Debug   

     71896       9192       2000       5608      37304     353670   Grand Totals
     71896       9192       2000       2332      37304     353670   ELF Image Totals (compressed)
     71896       9192       2000       2332          0          0   ROM Totals

==============================================================================

    Total RO  Size (Code + RO Data)                73896 (  72.16kB)
    Total RW  Size (RW Data + ZI Data)             42912 (  41.91kB)
    Total ROM Size (Code + RO Data + RW Data)      76228 (  74.44kB)

==============================================================================

